(lp0
I0
aI1
aI2
aI3
aI11
aI9
aI10
aI8
aI7
aI5
aI6
aI4
aI13
aI12
aI15
aI14
aI17
aI16
aI18
aI19
aI20
aI21
aI22
aI23
aI24
aI25
aI26
aI27
aI35
aI33
aI34
aI32
aI31
aI29
aI30
aI28
aI37
aI36
aI39
aI38
aI41
aI40
aI42
aI43
aI44
aI45
aI46
aI47
aI48
aI49
aI50
aI51
aI59
aI57
aI58
aI56
aI55
aI53
aI54
aI52
aI61
aI60
aI63
aI62
aI65
aI64
aI66
aI67
aI68
aI69
aI70
aI71
aI72
aI73
aI74
aI75
aI83
aI81
aI82
aI80
aI79
aI77
aI78
aI76
aI85
aI84
aI87
aI86
aI89
aI88
aI90
aI91
aI92
aI93
aI94
aI95
aI264
aI265
aI266
aI267
aI275
aI273
aI274
aI272
aI271
aI269
aI270
aI268
aI277
aI276
aI279
aI278
aI281
aI280
aI282
aI283
aI284
aI285
aI286
aI287
aI216
aI217
aI218
aI219
aI227
aI225
aI226
aI224
aI223
aI221
aI222
aI220
aI229
aI228
aI231
aI230
aI233
aI232
aI234
aI235
aI236
aI237
aI238
aI239
aI240
aI241
aI242
aI243
aI251
aI249
aI250
aI248
aI247
aI245
aI246
aI244
aI253
aI252
aI255
aI254
aI257
aI256
aI258
aI259
aI260
aI261
aI262
aI263
aI192
aI193
aI194
aI195
aI203
aI201
aI202
aI200
aI199
aI197
aI198
aI196
aI205
aI204
aI207
aI206
aI209
aI208
aI210
aI211
aI212
aI213
aI214
aI215
aI168
aI169
aI170
aI171
aI179
aI177
aI178
aI176
aI175
aI173
aI174
aI172
aI181
aI180
aI183
aI182
aI185
aI184
aI186
aI187
aI188
aI189
aI190
aI191
aI120
aI121
aI122
aI123
aI131
aI129
aI130
aI128
aI127
aI125
aI126
aI124
aI133
aI132
aI135
aI134
aI137
aI136
aI138
aI139
aI140
aI141
aI142
aI143
aI144
aI145
aI146
aI147
aI155
aI153
aI154
aI152
aI151
aI149
aI150
aI148
aI157
aI156
aI159
aI158
aI161
aI160
aI162
aI163
aI164
aI165
aI166
aI167
aI96
aI97
aI98
aI99
aI107
aI105
aI106
aI104
aI103
aI101
aI102
aI100
aI109
aI108
aI111
aI110
aI113
aI112
aI114
aI115
aI116
aI117
aI118
aI119
aI312
aI313
aI314
aI315
aI323
aI321
aI322
aI320
aI319
aI317
aI318
aI316
aI325
aI324
aI327
aI326
aI329
aI328
aI330
aI331
aI332
aI333
aI334
aI335
aI288
aI289
aI290
aI291
aI299
aI297
aI298
aI296
aI295
aI293
aI294
aI292
aI301
aI300
aI303
aI302
aI305
aI304
aI306
aI307
aI308
aI309
aI310
aI311
aI360
aI361
aI362
aI363
aI371
aI369
aI370
aI368
aI367
aI365
aI366
aI364
aI373
aI372
aI375
aI374
aI377
aI376
aI378
aI379
aI380
aI381
aI382
aI383
aI336
aI337
aI338
aI339
aI347
aI345
aI346
aI344
aI343
aI341
aI342
aI340
aI349
aI348
aI351
aI350
aI353
aI352
aI354
aI355
aI356
aI357
aI358
aI359
aI408
aI409
aI410
aI411
aI419
aI417
aI418
aI416
aI415
aI413
aI414
aI412
aI421
aI420
aI423
aI422
aI425
aI424
aI426
aI427
aI428
aI429
aI430
aI431
aI384
aI385
aI386
aI387
aI395
aI393
aI394
aI392
aI391
aI389
aI390
aI388
aI397
aI396
aI399
aI398
aI401
aI400
aI402
aI403
aI404
aI405
aI406
aI407
aI432
aI433
aI434
aI435
aI443
aI441
aI442
aI440
aI439
aI437
aI438
aI436
aI445
aI444
aI447
aI446
aI449
aI448
aI450
aI451
aI452
aI453
aI454
aI455
aI456
aI457
aI458
aI459
aI467
aI465
aI466
aI464
aI463
aI461
aI462
aI460
aI469
aI468
aI471
aI470
aI473
aI472
aI474
aI475
aI476
aI477
aI478
aI479
aI480
aI481
aI482
aI483
aI491
aI489
aI490
aI488
aI487
aI485
aI486
aI484
aI493
aI492
aI495
aI494
aI497
aI496
aI498
aI499
aI500
aI501
aI502
aI503
aI504
aI505
aI506
aI507
aI515
aI513
aI514
aI512
aI511
aI509
aI510
aI508
aI517
aI516
aI519
aI518
aI521
aI520
aI522
aI523
aI524
aI525
aI526
aI527
aI528
aI529
aI530
aI531
aI539
aI537
aI538
aI536
aI535
aI533
aI534
aI532
aI541
aI540
aI543
aI542
aI545
aI544
aI546
aI547
aI548
aI549
aI550
aI551
aI552
aI553
aI554
aI555
aI563
aI561
aI562
aI560
aI559
aI557
aI558
aI556
aI565
aI564
aI567
aI566
aI569
aI568
aI570
aI571
aI572
aI573
aI574
aI575
aI5189
aI5212
aI5214
aI5191
aI604
aI583
aI606
aI581
aI1157
aI1180
aI1159
aI1182
aI1171
aI1190
aI614
aI591
aI5199
aI5203
aI618
aI595
aI1167
aI1194
aI5222
aI5226
aI5213
aI5188
aI5190
aI5215
aI580
aI607
aI582
aI605
aI1181
aI1156
aI1183
aI1158
aI1195
aI1166
aI590
aI615
aI5223
aI5227
aI594
aI619
aI1191
aI1170
aI5198
aI5202
aI5239
aI5262
aI5260
aI5237
aI654
aI629
aI652
aI631
aI1207
aI1230
aI1205
aI1228
aI1215
aI1242
aI666
aI643
aI5251
aI5247
aI662
aI639
aI1219
aI1238
aI5274
aI5270
aI5263
aI5238
aI5236
aI5261
aI630
aI653
aI628
aI655
aI1231
aI1206
aI1229
aI1204
aI1239
aI1218
aI642
aI667
aI5275
aI5271
aI638
aI663
aI1243
aI1214
aI5250
aI5246
aI1757
aI1732
aI1734
aI1759
aI2308
aI2335
aI2310
aI2333
aI2909
aI2884
aI2911
aI2886
aI2923
aI2894
aI2318
aI2343
aI1767
aI1771
aI2322
aI2347
aI2919
aI2898
aI1742
aI1746
aI1807
aI1782
aI1780
aI1805
aI2358
aI2381
aI2356
aI2383
aI2959
aI2934
aI2957
aI2932
aI2967
aI2946
aI2370
aI2395
aI1819
aI1815
aI2366
aI2391
aI2971
aI2942
aI1794
aI1790
aI1783
aI1806
aI1804
aI1781
aI2382
aI2357
aI2380
aI2359
aI2935
aI2958
aI2933
aI2956
aI2943
aI2970
aI2394
aI2371
aI1795
aI1791
aI2390
aI2367
aI2947
aI2966
aI1818
aI1814
aI1733
aI1756
aI1758
aI1735
aI2332
aI2311
aI2334
aI2309
aI2885
aI2908
aI2887
aI2910
aI2899
aI2918
aI2342
aI2319
aI1743
aI1747
aI2346
aI2323
aI2895
aI2922
aI1766
aI1770
aI3461
aI3484
aI3486
aI3463
aI4060
aI4039
aI4062
aI4037
aI4613
aI4636
aI4615
aI4638
aI4627
aI4646
aI4070
aI4047
aI3471
aI3475
aI4074
aI4051
aI4623
aI4650
aI3494
aI3498
aI3485
aI3460
aI3462
aI3487
aI4036
aI4063
aI4038
aI4061
aI4637
aI4612
aI4639
aI4614
aI4651
aI4622
aI4046
aI4071
aI3495
aI3499
aI4050
aI4075
aI4647
aI4626
aI3470
aI3474
aI3535
aI3510
aI3508
aI3533
aI4086
aI4109
aI4084
aI4111
aI4687
aI4662
aI4685
aI4660
aI4695
aI4674
aI4098
aI4123
aI3547
aI3543
aI4094
aI4119
aI4699
aI4670
aI3522
aI3518
aI3511
aI3534
aI3532
aI3509
aI4110
aI4085
aI4108
aI4087
aI4663
aI4686
aI4661
aI4684
aI4671
aI4698
aI4122
aI4099
aI3523
aI3519
aI4118
aI4095
aI4675
aI4694
aI3546
aI3542
aI5501
aI5476
aI5478
aI5503
aI868
aI895
aI870
aI893
aI1469
aI1444
aI1471
aI1446
aI1483
aI1454
aI878
aI903
aI5511
aI5515
aI882
aI907
aI1479
aI1458
aI5486
aI5490
aI5477
aI5500
aI5502
aI5479
aI892
aI871
aI894
aI869
aI1445
aI1468
aI1447
aI1470
aI1459
aI1478
aI902
aI879
aI5487
aI5491
aI906
aI883
aI1455
aI1482
aI5510
aI5514
aI3749
aI3772
aI3774
aI3751
aI4348
aI4327
aI4350
aI4325
aI4901
aI4924
aI4903
aI4926
aI4915
aI4934
aI4358
aI4335
aI3759
aI3763
aI4362
aI4339
aI4911
aI4938
aI3782
aI3786
aI3943
aI3966
aI3964
aI3941
aI4542
aI4517
aI4540
aI4519
aI5095
aI5118
aI5093
aI5116
aI5103
aI5130
aI4554
aI4531
aI3955
aI3951
aI4550
aI4527
aI5107
aI5126
aI3978
aI3974
aI2215
aI2238
aI2236
aI2213
aI2814
aI2789
aI2812
aI2791
aI3367
aI3390
aI3365
aI3388
aI3375
aI3402
aI2826
aI2803
aI2227
aI2223
aI2822
aI2799
aI3379
aI3398
aI2250
aI2246
aI2045
aI2020
aI2022
aI2047
aI2596
aI2623
aI2598
aI2621
aI3197
aI3172
aI3199
aI3174
aI3211
aI3182
aI2606
aI2631
aI2055
aI2059
aI2610
aI2635
aI3207
aI3186
aI2030
aI2034
aI3967
aI3942
aI3940
aI3965
aI4518
aI4541
aI4516
aI4543
aI5119
aI5094
aI5117
aI5092
aI5127
aI5106
aI4530
aI4555
aI3979
aI3975
aI4526
aI4551
aI5131
aI5102
aI3954
aI3950
aI3773
aI3748
aI3750
aI3775
aI4324
aI4351
aI4326
aI4349
aI4925
aI4900
aI4927
aI4902
aI4939
aI4910
aI4334
aI4359
aI3783
aI3787
aI4338
aI4363
aI4935
aI4914
aI3758
aI3762
aI5671
aI5694
aI5692
aI5669
aI1086
aI1061
aI1084
aI1063
aI1639
aI1662
aI1637
aI1660
aI1647
aI1674
aI1098
aI1075
aI5683
aI5679
aI1094
aI1071
aI1651
aI1670
aI5706
aI5702
aI5695
aI5670
aI5668
aI5693
aI1062
aI1085
aI1060
aI1087
aI1663
aI1638
aI1661
aI1636
aI1671
aI1650
aI1074
aI1099
aI5707
aI5703
aI1070
aI1095
aI1675
aI1646
aI5682
aI5678
aI2021
aI2044
aI2046
aI2023
aI2620
aI2599
aI2622
aI2597
aI3173
aI3196
aI3175
aI3198
aI3187
aI3206
aI2630
aI2607
aI2031
aI2035
aI2634
aI2611
aI3183
aI3210
aI2054
aI2058
aI2239
aI2214
aI2212
aI2237
aI2790
aI2813
aI2788
aI2815
aI3391
aI3366
aI3389
aI3364
aI3399
aI3378
aI2802
aI2827
aI2251
aI2247
aI2798
aI2823
aI3403
aI3374
aI2226
aI2222
aI5194
aI5217
aI5219
aI5192
aI609
aI584
aI611
aI586
aI1162
aI1185
aI1160
aI1187
aI1164
aI1189
aI613
aI596
aI5204
aI5196
aI621
aI588
aI1172
aI1197
aI5221
aI5229
aI5218
aI5193
aI5195
aI5216
aI585
aI608
aI587
aI610
aI1186
aI1161
aI1184
aI1163
aI1188
aI1165
aI589
aI620
aI5228
aI5220
aI597
aI612
aI1196
aI1173
aI5197
aI5205
aI5240
aI5267
aI5265
aI5242
aI659
aI634
aI657
aI632
aI1208
aI1235
aI1210
aI1233
aI1220
aI1245
aI669
aI636
aI5244
aI5252
aI661
aI644
aI1212
aI1237
aI5277
aI5269
aI5264
aI5243
aI5241
aI5266
aI635
aI658
aI633
aI656
aI1232
aI1211
aI1234
aI1209
aI1244
aI1221
aI645
aI660
aI5268
aI5276
aI637
aI668
aI1236
aI1213
aI5253
aI5245
aI1762
aI1737
aI1739
aI1760
aI2313
aI2336
aI2315
aI2338
aI2914
aI2889
aI2912
aI2891
aI2916
aI2893
aI2317
aI2348
aI1772
aI1764
aI2325
aI2340
aI2924
aI2901
aI1741
aI1749
aI1808
aI1787
aI1785
aI1810
aI2363
aI2386
aI2361
aI2384
aI2960
aI2939
aI2962
aI2937
aI2972
aI2949
aI2373
aI2388
aI1812
aI1820
aI2365
aI2396
aI2964
aI2941
aI1797
aI1789
aI1784
aI1811
aI1809
aI1786
aI2387
aI2362
aI2385
aI2360
aI2936
aI2963
aI2938
aI2961
aI2948
aI2973
aI2397
aI2364
aI1788
aI1796
aI2389
aI2372
aI2940
aI2965
aI1821
aI1813
aI1738
aI1761
aI1763
aI1736
aI2337
aI2312
aI2339
aI2314
aI2890
aI2913
aI2888
aI2915
aI2892
aI2917
aI2341
aI2324
aI1748
aI1740
aI2349
aI2316
aI2900
aI2925
aI1765
aI1773
aI3466
aI3489
aI3491
aI3464
aI4065
aI4040
aI4067
aI4042
aI4618
aI4641
aI4616
aI4643
aI4620
aI4645
aI4069
aI4052
aI3476
aI3468
aI4077
aI4044
aI4628
aI4653
aI3493
aI3501
aI3490
aI3465
aI3467
aI3488
aI4041
aI4064
aI4043
aI4066
aI4642
aI4617
aI4640
aI4619
aI4644
aI4621
aI4045
aI4076
aI3500
aI3492
aI4053
aI4068
aI4652
aI4629
aI3469
aI3477
aI3536
aI3515
aI3513
aI3538
aI4091
aI4114
aI4089
aI4112
aI4688
aI4667
aI4690
aI4665
aI4700
aI4677
aI4101
aI4116
aI3540
aI3548
aI4093
aI4124
aI4692
aI4669
aI3525
aI3517
aI3512
aI3539
aI3537
aI3514
aI4115
aI4090
aI4113
aI4088
aI4664
aI4691
aI4666
aI4689
aI4676
aI4701
aI4125
aI4092
aI3516
aI3524
aI4117
aI4100
aI4668
aI4693
aI3549
aI3541
aI5506
aI5481
aI5483
aI5504
aI873
aI896
aI875
aI898
aI1474
aI1449
aI1472
aI1451
aI1476
aI1453
aI877
aI908
aI5516
aI5508
aI885
aI900
aI1484
aI1461
aI5485
aI5493
aI5482
aI5505
aI5507
aI5480
aI897
aI872
aI899
aI874
aI1450
aI1473
aI1448
aI1475
aI1452
aI1477
aI901
aI884
aI5492
aI5484
aI909
aI876
aI1460
aI1485
aI5509
aI5517
aI3754
aI3777
aI3779
aI3752
aI4353
aI4328
aI4355
aI4330
aI4906
aI4929
aI4904
aI4931
aI4908
aI4933
aI4357
aI4340
aI3764
aI3756
aI4365
aI4332
aI4916
aI4941
aI3781
aI3789
aI3944
aI3971
aI3969
aI3946
aI4547
aI4522
aI4545
aI4520
aI5096
aI5123
aI5098
aI5121
aI5108
aI5133
aI4557
aI4524
aI3948
aI3956
aI4549
aI4532
aI5100
aI5125
aI3981
aI3973
aI2216
aI2243
aI2241
aI2218
aI2819
aI2794
aI2817
aI2792
aI3368
aI3395
aI3370
aI3393
aI3380
aI3405
aI2829
aI2796
aI2220
aI2228
aI2821
aI2804
aI3372
aI3397
aI2253
aI2245
aI2050
aI2025
aI2027
aI2048
aI2601
aI2624
aI2603
aI2626
aI3202
aI3177
aI3200
aI3179
aI3204
aI3181
aI2605
aI2636
aI2060
aI2052
aI2613
aI2628
aI3212
aI3189
aI2029
aI2037
aI3968
aI3947
aI3945
aI3970
aI4523
aI4546
aI4521
aI4544
aI5120
aI5099
aI5122
aI5097
aI5132
aI5109
aI4533
aI4548
aI3972
aI3980
aI4525
aI4556
aI5124
aI5101
aI3957
aI3949
aI3778
aI3753
aI3755
aI3776
aI4329
aI4352
aI4331
aI4354
aI4930
aI4905
aI4928
aI4907
aI4932
aI4909
aI4333
aI4364
aI3788
aI3780
aI4341
aI4356
aI4940
aI4917
aI3757
aI3765
aI5672
aI5699
aI5697
aI5674
aI1091
aI1066
aI1089
aI1064
aI1640
aI1667
aI1642
aI1665
aI1652
aI1677
aI1101
aI1068
aI5676
aI5684
aI1093
aI1076
aI1644
aI1669
aI5709
aI5701
aI5696
aI5675
aI5673
aI5698
aI1067
aI1090
aI1065
aI1088
aI1664
aI1643
aI1666
aI1641
aI1676
aI1653
aI1077
aI1092
aI5700
aI5708
aI1069
aI1100
aI1668
aI1645
aI5685
aI5677
aI2026
aI2049
aI2051
aI2024
aI2625
aI2600
aI2627
aI2602
aI3178
aI3201
aI3176
aI3203
aI3180
aI3205
aI2629
aI2612
aI2036
aI2028
aI2637
aI2604
aI3188
aI3213
aI2053
aI2061
aI2240
aI2219
aI2217
aI2242
aI2795
aI2818
aI2793
aI2816
aI3392
aI3371
aI3394
aI3369
aI3404
aI3381
aI2805
aI2820
aI2244
aI2252
aI2797
aI2828
aI3396
aI3373
aI2229
aI2221
aI5355
aI5281
aI5282
aI5352
aI673
aI744
aI674
aI747
aI1323
aI1249
aI1320
aI1250
aI1337
aI1270
aI694
aI760
aI5368
aI5369
aI695
aI761
aI1336
aI1271
aI5302
aI5303
aI5283
aI5353
aI5354
aI5280
aI745
aI672
aI746
aI675
aI1251
aI1321
aI1248
aI1322
aI1265
aI1342
aI766
aI688
aI5296
aI5297
aI767
aI689
aI1264
aI1343
aI5374
aI5375
aI5328
aI5306
aI5305
aI5331
aI698
aI723
aI697
aI720
aI1296
aI1274
aI1299
aI1273
aI1312
aI1295
aI719
aI737
aI5345
aI5344
aI718
aI736
aI1313
aI1294
aI5327
aI5326
aI5304
aI5330
aI5329
aI5307
aI722
aI699
aI721
aI696
aI1272
aI1298
aI1275
aI1297
aI1288
aI1319
aI743
aI713
aI5321
aI5320
aI742
aI712
aI1289
aI1318
aI5351
aI5350
aI1827
aI1897
aI1898
aI1824
aI2473
aI2400
aI2474
aI2403
aI2979
aI3049
aI2976
aI3050
aI2993
aI3070
aI2494
aI2416
aI1840
aI1841
aI2495
aI2417
aI2992
aI3071
aI1918
aI1919
aI1848
aI1874
aI1873
aI1851
aI2450
aI2427
aI2449
aI2424
aI3000
aI3026
aI3003
aI3025
aI3016
aI3047
aI2471
aI2441
aI1865
aI1864
aI2470
aI2440
aI3017
aI3046
aI1895
aI1894
aI1872
aI1850
aI1849
aI1875
aI2426
aI2451
aI2425
aI2448
aI3024
aI3002
aI3027
aI3001
aI3040
aI3023
aI2447
aI2465
aI1889
aI1888
aI2446
aI2464
aI3041
aI3022
aI1871
aI1870
aI1899
aI1825
aI1826
aI1896
aI2401
aI2472
aI2402
aI2475
aI3051
aI2977
aI3048
aI2978
aI3065
aI2998
aI2422
aI2488
aI1912
aI1913
aI2423
aI2489
aI3064
aI2999
aI1846
aI1847
aI3627
aI3553
aI3554
aI3624
aI4129
aI4200
aI4130
aI4203
aI4779
aI4705
aI4776
aI4706
aI4793
aI4726
aI4150
aI4216
aI3640
aI3641
aI4151
aI4217
aI4792
aI4727
aI3574
aI3575
aI3555
aI3625
aI3626
aI3552
aI4201
aI4128
aI4202
aI4131
aI4707
aI4777
aI4704
aI4778
aI4721
aI4798
aI4222
aI4144
aI3568
aI3569
aI4223
aI4145
aI4720
aI4799
aI3646
aI3647
aI3576
aI3602
aI3601
aI3579
aI4178
aI4155
aI4177
aI4152
aI4728
aI4754
aI4731
aI4753
aI4744
aI4775
aI4199
aI4169
aI3593
aI3592
aI4198
aI4168
aI4745
aI4774
aI3623
aI3622
aI3600
aI3578
aI3577
aI3603
aI4154
aI4179
aI4153
aI4176
aI4752
aI4730
aI4755
aI4729
aI4768
aI4751
aI4175
aI4193
aI3617
aI3616
aI4174
aI4192
aI4769
aI4750
aI3599
aI3598
aI5715
aI5593
aI5594
aI5712
aI985
aI1104
aI986
aI1107
aI1683
aI1561
aI1680
aI1562
aI1697
aI1582
aI1006
aI1120
aI5728
aI5729
aI1007
aI1121
aI1696
aI1583
aI5614
aI5615
aI5595
aI5713
aI5714
aI5592
aI1105
aI984
aI1106
aI987
aI1563
aI1681
aI1560
aI1682
aI1577
aI1702
aI1126
aI1000
aI5608
aI5609
aI1127
aI1001
aI1576
aI1703
aI5734
aI5735
aI3867
aI3985
aI3986
aI3864
aI4561
aI4440
aI4562
aI4443
aI5019
aI5137
aI5016
aI5138
aI5033
aI5158
aI4582
aI4456
aI3880
aI3881
aI4583
aI4457
aI5032
aI5159
aI4006
aI4007
aI3840
aI4010
aI4009
aI3843
aI4586
aI4419
aI4585
aI4416
aI4992
aI5162
aI4995
aI5161
aI5008
aI5183
aI4607
aI4433
aI3857
aI3856
aI4606
aI4432
aI5009
aI5182
aI4031
aI4030
aI2112
aI2282
aI2281
aI2115
aI2858
aI2691
aI2857
aI2688
aI3264
aI3434
aI3267
aI3433
aI3280
aI3455
aI2879
aI2705
aI2129
aI2128
aI2878
aI2704
aI3281
aI3454
aI2303
aI2302
aI2259
aI2137
aI2138
aI2256
aI2713
aI2832
aI2714
aI2835
aI3411
aI3289
aI3408
aI3290
aI3425
aI3310
aI2734
aI2848
aI2272
aI2273
aI2735
aI2849
aI3424
aI3311
aI2158
aI2159
aI4008
aI3842
aI3841
aI4011
aI4418
aI4587
aI4417
aI4584
aI5160
aI4994
aI5163
aI4993
aI5176
aI5015
aI4439
aI4601
aI4025
aI4024
aI4438
aI4600
aI5177
aI5014
aI3863
aI3862
aI3987
aI3865
aI3866
aI3984
aI4441
aI4560
aI4442
aI4563
aI5139
aI5017
aI5136
aI5018
aI5153
aI5038
aI4462
aI4576
aI4000
aI4001
aI4463
aI4577
aI5152
aI5039
aI3886
aI3887
aI5568
aI5738
aI5737
aI5571
aI1130
aI963
aI1129
aI960
aI1536
aI1706
aI1539
aI1705
aI1552
aI1727
aI1151
aI977
aI5585
aI5584
aI1150
aI976
aI1553
aI1726
aI5759
aI5758
aI5736
aI5570
aI5569
aI5739
aI962
aI1131
aI961
aI1128
aI1704
aI1538
aI1707
aI1537
aI1720
aI1559
aI983
aI1145
aI5753
aI5752
aI982
aI1144
aI1721
aI1558
aI5591
aI5590
aI2139
aI2257
aI2258
aI2136
aI2833
aI2712
aI2834
aI2715
aI3291
aI3409
aI3288
aI3410
aI3305
aI3430
aI2854
aI2728
aI2152
aI2153
aI2855
aI2729
aI3304
aI3431
aI2278
aI2279
aI2280
aI2114
aI2113
aI2283
aI2690
aI2859
aI2689
aI2856
aI3432
aI3266
aI3435
aI3265
aI3448
aI3287
aI2711
aI2873
aI2297
aI2296
aI2710
aI2872
aI3449
aI3286
aI2135
aI2134
aI5357
aI5284
aI5286
aI5359
aI676
aI751
aI678
aI749
aI1325
aI1252
aI1327
aI1254
aI1339
aI1262
aI686
aI759
aI5367
aI5371
aI690
aI763
aI1335
aI1266
aI5294
aI5298
aI5285
aI5356
aI5358
aI5287
aI748
aI679
aI750
aI677
aI1253
aI1324
aI1255
aI1326
aI1267
aI1334
aI758
aI687
aI5295
aI5299
aI762
aI691
aI1263
aI1338
aI5366
aI5370
aI5335
aI5310
aI5308
aI5333
aI702
aI725
aI700
aI727
aI1303
aI1278
aI1301
aI1276
aI1311
aI1290
aI714
aI739
aI5347
aI5343
aI710
aI735
aI1315
aI1286
aI5322
aI5318
aI5311
aI5334
aI5332
aI5309
aI726
aI701
aI724
aI703
aI1279
aI1302
aI1277
aI1300
aI1287
aI1314
aI738
aI715
aI5323
aI5319
aI734
aI711
aI1291
aI1310
aI5346
aI5342
aI1829
aI1900
aI1902
aI1831
aI2476
aI2407
aI2478
aI2405
aI2981
aI3052
aI2983
aI3054
aI2995
aI3062
aI2486
aI2415
aI1839
aI1843
aI2490
aI2419
aI2991
aI3066
aI1910
aI1914
aI1855
aI1878
aI1876
aI1853
aI2454
aI2429
aI2452
aI2431
aI3007
aI3030
aI3005
aI3028
aI3015
aI3042
aI2466
aI2443
aI1867
aI1863
aI2462
aI2439
aI3019
aI3038
aI1890
aI1886
aI1879
aI1854
aI1852
aI1877
aI2430
aI2453
aI2428
aI2455
aI3031
aI3006
aI3029
aI3004
aI3039
aI3018
aI2442
aI2467
aI1891
aI1887
aI2438
aI2463
aI3043
aI3014
aI1866
aI1862
aI1901
aI1828
aI1830
aI1903
aI2404
aI2479
aI2406
aI2477
aI3053
aI2980
aI3055
aI2982
aI3067
aI2990
aI2414
aI2487
aI1911
aI1915
aI2418
aI2491
aI3063
aI2994
aI1838
aI1842
aI3629
aI3556
aI3558
aI3631
aI4132
aI4207
aI4134
aI4205
aI4781
aI4708
aI4783
aI4710
aI4795
aI4718
aI4142
aI4215
aI3639
aI3643
aI4146
aI4219
aI4791
aI4722
aI3566
aI3570
aI3557
aI3628
aI3630
aI3559
aI4204
aI4135
aI4206
aI4133
aI4709
aI4780
aI4711
aI4782
aI4723
aI4790
aI4214
aI4143
aI3567
aI3571
aI4218
aI4147
aI4719
aI4794
aI3638
aI3642
aI3583
aI3606
aI3604
aI3581
aI4182
aI4157
aI4180
aI4159
aI4735
aI4758
aI4733
aI4756
aI4743
aI4770
aI4194
aI4171
aI3595
aI3591
aI4190
aI4167
aI4747
aI4766
aI3618
aI3614
aI3607
aI3582
aI3580
aI3605
aI4158
aI4181
aI4156
aI4183
aI4759
aI4734
aI4757
aI4732
aI4767
aI4746
aI4170
aI4195
aI3619
aI3615
aI4166
aI4191
aI4771
aI4742
aI3594
aI3590
aI5717
aI5596
aI5598
aI5719
aI988
aI1111
aI990
aI1109
aI1685
aI1564
aI1687
aI1566
aI1699
aI1574
aI998
aI1119
aI5727
aI5731
aI1002
aI1123
aI1695
aI1578
aI5606
aI5610
aI5597
aI5716
aI5718
aI5599
aI1108
aI991
aI1110
aI989
aI1565
aI1684
aI1567
aI1686
aI1579
aI1694
aI1118
aI999
aI5607
aI5611
aI1122
aI1003
aI1575
aI1698
aI5726
aI5730
aI3869
aI3988
aI3990
aI3871
aI4564
aI4447
aI4566
aI4445
aI5021
aI5140
aI5023
aI5142
aI5035
aI5150
aI4574
aI4455
aI3879
aI3883
aI4578
aI4459
aI5031
aI5154
aI3998
aI4002
aI3847
aI4014
aI4012
aI3845
aI4590
aI4421
aI4588
aI4423
aI4999
aI5166
aI4997
aI5164
aI5007
aI5178
aI4602
aI4435
aI3859
aI3855
aI4598
aI4431
aI5011
aI5174
aI4026
aI4022
aI2119
aI2286
aI2284
aI2117
aI2862
aI2693
aI2860
aI2695
aI3271
aI3438
aI3269
aI3436
aI3279
aI3450
aI2874
aI2707
aI2131
aI2127
aI2870
aI2703
aI3283
aI3446
aI2298
aI2294
aI2261
aI2140
aI2142
aI2263
aI2716
aI2839
aI2718
aI2837
aI3413
aI3292
aI3415
aI3294
aI3427
aI3302
aI2726
aI2847
aI2271
aI2275
aI2730
aI2851
aI3423
aI3306
aI2150
aI2154
aI4015
aI3846
aI3844
aI4013
aI4422
aI4589
aI4420
aI4591
aI5167
aI4998
aI5165
aI4996
aI5175
aI5010
aI4434
aI4603
aI4027
aI4023
aI4430
aI4599
aI5179
aI5006
aI3858
aI3854
aI3989
aI3868
aI3870
aI3991
aI4444
aI4567
aI4446
aI4565
aI5141
aI5020
aI5143
aI5022
aI5155
aI5030
aI4454
aI4575
aI3999
aI4003
aI4458
aI4579
aI5151
aI5034
aI3878
aI3882
aI5575
aI5742
aI5740
aI5573
aI1134
aI965
aI1132
aI967
aI1543
aI1710
aI1541
aI1708
aI1551
aI1722
aI1146
aI979
aI5587
aI5583
aI1142
aI975
aI1555
aI1718
aI5754
aI5750
aI5743
aI5574
aI5572
aI5741
aI966
aI1133
aI964
aI1135
aI1711
aI1542
aI1709
aI1540
aI1719
aI1554
aI978
aI1147
aI5755
aI5751
aI974
aI1143
aI1723
aI1550
aI5586
aI5582
aI2141
aI2260
aI2262
aI2143
aI2836
aI2719
aI2838
aI2717
aI3293
aI3412
aI3295
aI3414
aI3307
aI3422
aI2846
aI2727
aI2151
aI2155
aI2850
aI2731
aI3303
aI3426
aI2270
aI2274
aI2287
aI2118
aI2116
aI2285
aI2694
aI2861
aI2692
aI2863
aI3439
aI3270
aI3437
aI3268
aI3447
aI3282
aI2706
aI2875
aI2299
aI2295
aI2702
aI2871
aI3451
aI3278
aI2130
aI2126
aI5362
aI5289
aI5291
aI5360
aI681
aI752
aI683
aI754
aI1330
aI1257
aI1328
aI1259
aI1332
aI1261
aI685
aI764
aI5372
aI5364
aI693
aI756
aI1340
aI1269
aI5293
aI5301
aI5290
aI5361
aI5363
aI5288
aI753
aI680
aI755
aI682
aI1258
aI1329
aI1256
aI1331
aI1260
aI1333
aI757
aI692
aI5300
aI5292
aI765
aI684
aI1268
aI1341
aI5365
aI5373
aI5336
aI5315
aI5313
aI5338
aI707
aI730
aI705
aI728
aI1304
aI1283
aI1306
aI1281
aI1316
aI1293
aI717
aI732
aI5340
aI5348
aI709
aI740
aI1308
aI1285
aI5325
aI5317
aI5312
aI5339
aI5337
aI5314
aI731
aI706
aI729
aI704
aI1280
aI1307
aI1282
aI1305
aI1292
aI1317
aI741
aI708
aI5316
aI5324
aI733
aI716
aI1284
aI1309
aI5349
aI5341
aI1834
aI1905
aI1907
aI1832
aI2481
aI2408
aI2483
aI2410
aI2986
aI3057
aI2984
aI3059
aI2988
aI3061
aI2485
aI2420
aI1844
aI1836
aI2493
aI2412
aI2996
aI3069
aI1909
aI1917
aI1856
aI1883
aI1881
aI1858
aI2459
aI2434
aI2457
aI2432
aI3008
aI3035
aI3010
aI3033
aI3020
aI3045
aI2469
aI2436
aI1860
aI1868
aI2461
aI2444
aI3012
aI3037
aI1893
aI1885
aI1880
aI1859
aI1857
aI1882
aI2435
aI2458
aI2433
aI2456
aI3032
aI3011
aI3034
aI3009
aI3044
aI3021
aI2445
aI2460
aI1884
aI1892
aI2437
aI2468
aI3036
aI3013
aI1869
aI1861
aI1906
aI1833
aI1835
aI1904
aI2409
aI2480
aI2411
aI2482
aI3058
aI2985
aI3056
aI2987
aI3060
aI2989
aI2413
aI2492
aI1916
aI1908
aI2421
aI2484
aI3068
aI2997
aI1837
aI1845
aI3634
aI3561
aI3563
aI3632
aI4137
aI4208
aI4139
aI4210
aI4786
aI4713
aI4784
aI4715
aI4788
aI4717
aI4141
aI4220
aI3644
aI3636
aI4149
aI4212
aI4796
aI4725
aI3565
aI3573
aI3562
aI3633
aI3635
aI3560
aI4209
aI4136
aI4211
aI4138
aI4714
aI4785
aI4712
aI4787
aI4716
aI4789
aI4213
aI4148
aI3572
aI3564
aI4221
aI4140
aI4724
aI4797
aI3637
aI3645
aI3584
aI3611
aI3609
aI3586
aI4187
aI4162
aI4185
aI4160
aI4736
aI4763
aI4738
aI4761
aI4748
aI4773
aI4197
aI4164
aI3588
aI3596
aI4189
aI4172
aI4740
aI4765
aI3621
aI3613
aI3608
aI3587
aI3585
aI3610
aI4163
aI4186
aI4161
aI4184
aI4760
aI4739
aI4762
aI4737
aI4772
aI4749
aI4173
aI4188
aI3612
aI3620
aI4165
aI4196
aI4764
aI4741
aI3597
aI3589
aI5722
aI5601
aI5603
aI5720
aI993
aI1112
aI995
aI1114
aI1690
aI1569
aI1688
aI1571
aI1692
aI1573
aI997
aI1124
aI5732
aI5724
aI1005
aI1116
aI1700
aI1581
aI5605
aI5613
aI5602
aI5721
aI5723
aI5600
aI1113
aI992
aI1115
aI994
aI1570
aI1689
aI1568
aI1691
aI1572
aI1693
aI1117
aI1004
aI5612
aI5604
aI1125
aI996
aI1580
aI1701
aI5725
aI5733
aI3874
aI3993
aI3995
aI3872
aI4569
aI4448
aI4571
aI4450
aI5026
aI5145
aI5024
aI5147
aI5028
aI5149
aI4573
aI4460
aI3884
aI3876
aI4581
aI4452
aI5036
aI5157
aI3997
aI4005
aI3848
aI4019
aI4017
aI3850
aI4595
aI4426
aI4593
aI4424
aI5000
aI5171
aI5002
aI5169
aI5012
aI5181
aI4605
aI4428
aI3852
aI3860
aI4597
aI4436
aI5004
aI5173
aI4029
aI4021
aI2120
aI2291
aI2289
aI2122
aI2867
aI2698
aI2865
aI2696
aI3272
aI3443
aI3274
aI3441
aI3284
aI3453
aI2877
aI2700
aI2124
aI2132
aI2869
aI2708
aI3276
aI3445
aI2301
aI2293
aI2266
aI2145
aI2147
aI2264
aI2721
aI2840
aI2723
aI2842
aI3418
aI3297
aI3416
aI3299
aI3420
aI3301
aI2725
aI2852
aI2276
aI2268
aI2733
aI2844
aI3428
aI3309
aI2149
aI2157
aI4016
aI3851
aI3849
aI4018
aI4427
aI4594
aI4425
aI4592
aI5168
aI5003
aI5170
aI5001
aI5180
aI5013
aI4437
aI4596
aI4020
aI4028
aI4429
aI4604
aI5172
aI5005
aI3861
aI3853
aI3994
aI3873
aI3875
aI3992
aI4449
aI4568
aI4451
aI4570
aI5146
aI5025
aI5144
aI5027
aI5148
aI5029
aI4453
aI4580
aI4004
aI3996
aI4461
aI4572
aI5156
aI5037
aI3877
aI3885
aI5576
aI5747
aI5745
aI5578
aI1139
aI970
aI1137
aI968
aI1544
aI1715
aI1546
aI1713
aI1556
aI1725
aI1149
aI972
aI5580
aI5588
aI1141
aI980
aI1548
aI1717
aI5757
aI5749
aI5744
aI5579
aI5577
aI5746
aI971
aI1138
aI969
aI1136
aI1712
aI1547
aI1714
aI1545
aI1724
aI1557
aI981
aI1140
aI5748
aI5756
aI973
aI1148
aI1716
aI1549
aI5589
aI5581
aI2146
aI2265
aI2267
aI2144
aI2841
aI2720
aI2843
aI2722
aI3298
aI3417
aI3296
aI3419
aI3300
aI3421
aI2845
aI2732
aI2156
aI2148
aI2853
aI2724
aI3308
aI3429
aI2269
aI2277
aI2288
aI2123
aI2121
aI2290
aI2699
aI2866
aI2697
aI2864
aI3440
aI3275
aI3442
aI3273
aI3452
aI3285
aI2709
aI2868
aI2292
aI2300
aI2701
aI2876
aI3444
aI3277
aI2133
aI2125
aI5379
aI5401
aI5402
aI5376
aI793
aI768
aI794
aI771
aI1347
aI1369
aI1344
aI1370
aI1361
aI1390
aI814
aI784
aI5392
aI5393
aI815
aI785
aI1360
aI1391
aI5422
aI5423
aI5403
aI5377
aI5378
aI5400
aI769
aI792
aI770
aI795
aI1371
aI1345
aI1368
aI1346
aI1385
aI1366
aI790
aI808
aI5416
aI5417
aI791
aI809
aI1384
aI1367
aI5398
aI5399
aI5448
aI5426
aI5425
aI5451
aI818
aI843
aI817
aI840
aI1416
aI1394
aI1419
aI1393
aI1432
aI1415
aI839
aI857
aI5465
aI5464
aI838
aI856
aI1433
aI1414
aI5447
aI5446
aI5424
aI5450
aI5449
aI5427
aI842
aI819
aI841
aI816
aI1392
aI1418
aI1395
aI1417
aI1408
aI1439
aI863
aI833
aI5441
aI5440
aI862
aI832
aI1409
aI1438
aI5471
aI5470
aI1947
aI1921
aI1922
aI1944
aI2497
aI2520
aI2498
aI2523
aI3099
aI3073
aI3096
aI3074
aI3113
aI3094
aI2518
aI2536
aI1960
aI1961
aI2519
aI2537
aI3112
aI3095
aI1942
aI1943
aI1968
aI1994
aI1993
aI1971
aI2570
aI2547
aI2569
aI2544
aI3120
aI3146
aI3123
aI3145
aI3136
aI3167
aI2591
aI2561
aI1985
aI1984
aI2590
aI2560
aI3137
aI3166
aI2015
aI2014
aI1992
aI1970
aI1969
aI1995
aI2546
aI2571
aI2545
aI2568
aI3144
aI3122
aI3147
aI3121
aI3160
aI3143
aI2567
aI2585
aI2009
aI2008
aI2566
aI2584
aI3161
aI3142
aI1991
aI1990
aI1923
aI1945
aI1946
aI1920
aI2521
aI2496
aI2522
aI2499
aI3075
aI3097
aI3072
aI3098
aI3089
aI3118
aI2542
aI2512
aI1936
aI1937
aI2543
aI2513
aI3088
aI3119
aI1966
aI1967
aI3651
aI3673
aI3674
aI3648
aI4249
aI4224
aI4250
aI4227
aI4803
aI4825
aI4800
aI4826
aI4817
aI4846
aI4270
aI4240
aI3664
aI3665
aI4271
aI4241
aI4816
aI4847
aI3694
aI3695
aI3675
aI3649
aI3650
aI3672
aI4225
aI4248
aI4226
aI4251
aI4827
aI4801
aI4824
aI4802
aI4841
aI4822
aI4246
aI4264
aI3688
aI3689
aI4247
aI4265
aI4840
aI4823
aI3670
aI3671
aI3696
aI3722
aI3721
aI3699
aI4298
aI4275
aI4297
aI4272
aI4848
aI4874
aI4851
aI4873
aI4864
aI4895
aI4319
aI4289
aI3713
aI3712
aI4318
aI4288
aI4865
aI4894
aI3743
aI3742
aI3720
aI3698
aI3697
aI3723
aI4274
aI4299
aI4273
aI4296
aI4872
aI4850
aI4875
aI4849
aI4888
aI4871
aI4295
aI4313
aI3737
aI3736
aI4294
aI4312
aI4889
aI4870
aI3719
aI3718
aI5523
aI5641
aI5642
aI5520
aI1033
aI912
aI1034
aI915
aI1491
aI1609
aI1488
aI1610
aI1505
aI1630
aI1054
aI928
aI5536
aI5537
aI1055
aI929
aI1504
aI1631
aI5662
aI5663
aI5643
aI5521
aI5522
aI5640
aI913
aI1032
aI914
aI1035
aI1611
aI1489
aI1608
aI1490
aI1625
aI1510
aI934
aI1048
aI5656
aI5657
aI935
aI1049
aI1624
aI1511
aI5542
aI5543
aI3915
aI3793
aI3794
aI3912
aI4369
aI4488
aI4370
aI4491
aI5067
aI4945
aI5064
aI4946
aI5081
aI4966
aI4390
aI4504
aI3928
aI3929
aI4391
aI4505
aI5080
aI4967
aI3814
aI3815
aI3816
aI3890
aI3889
aI3819
aI4466
aI4395
aI4465
aI4392
aI4968
aI5042
aI4971
aI5041
aI4984
aI5063
aI4487
aI4409
aI3833
aI3832
aI4486
aI4408
aI4985
aI5062
aI3911
aI3910
aI2088
aI2162
aI2161
aI2091
aI2738
aI2667
aI2737
aI2664
aI3240
aI3314
aI3243
aI3313
aI3256
aI3335
aI2759
aI2681
aI2105
aI2104
aI2758
aI2680
aI3257
aI3334
aI2183
aI2182
aI2067
aI2185
aI2186
aI2064
aI2761
aI2640
aI2762
aI2643
aI3219
aI3337
aI3216
aI3338
aI3233
aI3358
aI2782
aI2656
aI2080
aI2081
aI2783
aI2657
aI3232
aI3359
aI2206
aI2207
aI3888
aI3818
aI3817
aI3891
aI4394
aI4467
aI4393
aI4464
aI5040
aI4970
aI5043
aI4969
aI5056
aI4991
aI4415
aI4481
aI3905
aI3904
aI4414
aI4480
aI5057
aI4990
aI3839
aI3838
aI3795
aI3913
aI3914
aI3792
aI4489
aI4368
aI4490
aI4371
aI4947
aI5065
aI4944
aI5066
aI4961
aI5086
aI4510
aI4384
aI3808
aI3809
aI4511
aI4385
aI4960
aI5087
aI3934
aI3935
aI5544
aI5618
aI5617
aI5547
aI1010
aI939
aI1009
aI936
aI1512
aI1586
aI1515
aI1585
aI1528
aI1607
aI1031
aI953
aI5561
aI5560
aI1030
aI952
aI1529
aI1606
aI5639
aI5638
aI5616
aI5546
aI5545
aI5619
aI938
aI1011
aI937
aI1008
aI1584
aI1514
aI1587
aI1513
aI1600
aI1535
aI959
aI1025
aI5633
aI5632
aI958
aI1024
aI1601
aI1534
aI5567
aI5566
aI2187
aI2065
aI2066
aI2184
aI2641
aI2760
aI2642
aI2763
aI3339
aI3217
aI3336
aI3218
aI3353
aI3238
aI2662
aI2776
aI2200
aI2201
aI2663
aI2777
aI3352
aI3239
aI2086
aI2087
aI2160
aI2090
aI2089
aI2163
aI2666
aI2739
aI2665
aI2736
aI3312
aI3242
aI3315
aI3241
aI3328
aI3263
aI2687
aI2753
aI2177
aI2176
aI2686
aI2752
aI3329
aI3262
aI2111
aI2110
aI5381
aI5404
aI5406
aI5383
aI796
aI775
aI798
aI773
aI1349
aI1372
aI1351
aI1374
aI1363
aI1382
aI806
aI783
aI5391
aI5395
aI810
aI787
aI1359
aI1386
aI5414
aI5418
aI5405
aI5380
aI5382
aI5407
aI772
aI799
aI774
aI797
aI1373
aI1348
aI1375
aI1350
aI1387
aI1358
aI782
aI807
aI5415
aI5419
aI786
aI811
aI1383
aI1362
aI5390
aI5394
aI5455
aI5430
aI5428
aI5453
aI822
aI845
aI820
aI847
aI1423
aI1398
aI1421
aI1396
aI1431
aI1410
aI834
aI859
aI5467
aI5463
aI830
aI855
aI1435
aI1406
aI5442
aI5438
aI5431
aI5454
aI5452
aI5429
aI846
aI821
aI844
aI823
aI1399
aI1422
aI1397
aI1420
aI1407
aI1434
aI858
aI835
aI5443
aI5439
aI854
aI831
aI1411
aI1430
aI5466
aI5462
aI1949
aI1924
aI1926
aI1951
aI2500
aI2527
aI2502
aI2525
aI3101
aI3076
aI3103
aI3078
aI3115
aI3086
aI2510
aI2535
aI1959
aI1963
aI2514
aI2539
aI3111
aI3090
aI1934
aI1938
aI1975
aI1998
aI1996
aI1973
aI2574
aI2549
aI2572
aI2551
aI3127
aI3150
aI3125
aI3148
aI3135
aI3162
aI2586
aI2563
aI1987
aI1983
aI2582
aI2559
aI3139
aI3158
aI2010
aI2006
aI1999
aI1974
aI1972
aI1997
aI2550
aI2573
aI2548
aI2575
aI3151
aI3126
aI3149
aI3124
aI3159
aI3138
aI2562
aI2587
aI2011
aI2007
aI2558
aI2583
aI3163
aI3134
aI1986
aI1982
aI1925
aI1948
aI1950
aI1927
aI2524
aI2503
aI2526
aI2501
aI3077
aI3100
aI3079
aI3102
aI3091
aI3110
aI2534
aI2511
aI1935
aI1939
aI2538
aI2515
aI3087
aI3114
aI1958
aI1962
aI3653
aI3676
aI3678
aI3655
aI4252
aI4231
aI4254
aI4229
aI4805
aI4828
aI4807
aI4830
aI4819
aI4838
aI4262
aI4239
aI3663
aI3667
aI4266
aI4243
aI4815
aI4842
aI3686
aI3690
aI3677
aI3652
aI3654
aI3679
aI4228
aI4255
aI4230
aI4253
aI4829
aI4804
aI4831
aI4806
aI4843
aI4814
aI4238
aI4263
aI3687
aI3691
aI4242
aI4267
aI4839
aI4818
aI3662
aI3666
aI3703
aI3726
aI3724
aI3701
aI4302
aI4277
aI4300
aI4279
aI4855
aI4878
aI4853
aI4876
aI4863
aI4890
aI4314
aI4291
aI3715
aI3711
aI4310
aI4287
aI4867
aI4886
aI3738
aI3734
aI3727
aI3702
aI3700
aI3725
aI4278
aI4301
aI4276
aI4303
aI4879
aI4854
aI4877
aI4852
aI4887
aI4866
aI4290
aI4315
aI3739
aI3735
aI4286
aI4311
aI4891
aI4862
aI3714
aI3710
aI5525
aI5644
aI5646
aI5527
aI1036
aI919
aI1038
aI917
aI1493
aI1612
aI1495
aI1614
aI1507
aI1622
aI1046
aI927
aI5535
aI5539
aI1050
aI931
aI1503
aI1626
aI5654
aI5658
aI5645
aI5524
aI5526
aI5647
aI916
aI1039
aI918
aI1037
aI1613
aI1492
aI1615
aI1494
aI1627
aI1502
aI926
aI1047
aI5655
aI5659
aI930
aI1051
aI1623
aI1506
aI5534
aI5538
aI3917
aI3796
aI3798
aI3919
aI4372
aI4495
aI4374
aI4493
aI5069
aI4948
aI5071
aI4950
aI5083
aI4958
aI4382
aI4503
aI3927
aI3931
aI4386
aI4507
aI5079
aI4962
aI3806
aI3810
aI3823
aI3894
aI3892
aI3821
aI4470
aI4397
aI4468
aI4399
aI4975
aI5046
aI4973
aI5044
aI4983
aI5058
aI4482
aI4411
aI3835
aI3831
aI4478
aI4407
aI4987
aI5054
aI3906
aI3902
aI2095
aI2166
aI2164
aI2093
aI2742
aI2669
aI2740
aI2671
aI3247
aI3318
aI3245
aI3316
aI3255
aI3330
aI2754
aI2683
aI2107
aI2103
aI2750
aI2679
aI3259
aI3326
aI2178
aI2174
aI2069
aI2188
aI2190
aI2071
aI2764
aI2647
aI2766
aI2645
aI3221
aI3340
aI3223
aI3342
aI3235
aI3350
aI2774
aI2655
aI2079
aI2083
aI2778
aI2659
aI3231
aI3354
aI2198
aI2202
aI3895
aI3822
aI3820
aI3893
aI4398
aI4469
aI4396
aI4471
aI5047
aI4974
aI5045
aI4972
aI5055
aI4986
aI4410
aI4483
aI3907
aI3903
aI4406
aI4479
aI5059
aI4982
aI3834
aI3830
aI3797
aI3916
aI3918
aI3799
aI4492
aI4375
aI4494
aI4373
aI4949
aI5068
aI4951
aI5070
aI4963
aI5078
aI4502
aI4383
aI3807
aI3811
aI4506
aI4387
aI4959
aI5082
aI3926
aI3930
aI5551
aI5622
aI5620
aI5549
aI1014
aI941
aI1012
aI943
aI1519
aI1590
aI1517
aI1588
aI1527
aI1602
aI1026
aI955
aI5563
aI5559
aI1022
aI951
aI1531
aI1598
aI5634
aI5630
aI5623
aI5550
aI5548
aI5621
aI942
aI1013
aI940
aI1015
aI1591
aI1518
aI1589
aI1516
aI1599
aI1530
aI954
aI1027
aI5635
aI5631
aI950
aI1023
aI1603
aI1526
aI5562
aI5558
aI2189
aI2068
aI2070
aI2191
aI2644
aI2767
aI2646
aI2765
aI3341
aI3220
aI3343
aI3222
aI3355
aI3230
aI2654
aI2775
aI2199
aI2203
aI2658
aI2779
aI3351
aI3234
aI2078
aI2082
aI2167
aI2094
aI2092
aI2165
aI2670
aI2741
aI2668
aI2743
aI3319
aI3246
aI3317
aI3244
aI3327
aI3258
aI2682
aI2755
aI2179
aI2175
aI2678
aI2751
aI3331
aI3254
aI2106
aI2102
aI5386
aI5409
aI5411
aI5384
aI801
aI776
aI803
aI778
aI1354
aI1377
aI1352
aI1379
aI1356
aI1381
aI805
aI788
aI5396
aI5388
aI813
aI780
aI1364
aI1389
aI5413
aI5421
aI5410
aI5385
aI5387
aI5408
aI777
aI800
aI779
aI802
aI1378
aI1353
aI1376
aI1355
aI1380
aI1357
aI781
aI812
aI5420
aI5412
aI789
aI804
aI1388
aI1365
aI5389
aI5397
aI5456
aI5435
aI5433
aI5458
aI827
aI850
aI825
aI848
aI1424
aI1403
aI1426
aI1401
aI1436
aI1413
aI837
aI852
aI5460
aI5468
aI829
aI860
aI1428
aI1405
aI5445
aI5437
aI5432
aI5459
aI5457
aI5434
aI851
aI826
aI849
aI824
aI1400
aI1427
aI1402
aI1425
aI1412
aI1437
aI861
aI828
aI5436
aI5444
aI853
aI836
aI1404
aI1429
aI5469
aI5461
aI1954
aI1929
aI1931
aI1952
aI2505
aI2528
aI2507
aI2530
aI3106
aI3081
aI3104
aI3083
aI3108
aI3085
aI2509
aI2540
aI1964
aI1956
aI2517
aI2532
aI3116
aI3093
aI1933
aI1941
aI1976
aI2003
aI2001
aI1978
aI2579
aI2554
aI2577
aI2552
aI3128
aI3155
aI3130
aI3153
aI3140
aI3165
aI2589
aI2556
aI1980
aI1988
aI2581
aI2564
aI3132
aI3157
aI2013
aI2005
aI2000
aI1979
aI1977
aI2002
aI2555
aI2578
aI2553
aI2576
aI3152
aI3131
aI3154
aI3129
aI3164
aI3141
aI2565
aI2580
aI2004
aI2012
aI2557
aI2588
aI3156
aI3133
aI1989
aI1981
aI1930
aI1953
aI1955
aI1928
aI2529
aI2504
aI2531
aI2506
aI3082
aI3105
aI3080
aI3107
aI3084
aI3109
aI2533
aI2516
aI1940
aI1932
aI2541
aI2508
aI3092
aI3117
aI1957
aI1965
aI3658
aI3681
aI3683
aI3656
aI4257
aI4232
aI4259
aI4234
aI4810
aI4833
aI4808
aI4835
aI4812
aI4837
aI4261
aI4244
aI3668
aI3660
aI4269
aI4236
aI4820
aI4845
aI3685
aI3693
aI3682
aI3657
aI3659
aI3680
aI4233
aI4256
aI4235
aI4258
aI4834
aI4809
aI4832
aI4811
aI4836
aI4813
aI4237
aI4268
aI3692
aI3684
aI4245
aI4260
aI4844
aI4821
aI3661
aI3669
aI3704
aI3731
aI3729
aI3706
aI4307
aI4282
aI4305
aI4280
aI4856
aI4883
aI4858
aI4881
aI4868
aI4893
aI4317
aI4284
aI3708
aI3716
aI4309
aI4292
aI4860
aI4885
aI3741
aI3733
aI3728
aI3707
aI3705
aI3730
aI4283
aI4306
aI4281
aI4304
aI4880
aI4859
aI4882
aI4857
aI4892
aI4869
aI4293
aI4308
aI3732
aI3740
aI4285
aI4316
aI4884
aI4861
aI3717
aI3709
aI5530
aI5649
aI5651
aI5528
aI1041
aI920
aI1043
aI922
aI1498
aI1617
aI1496
aI1619
aI1500
aI1621
aI1045
aI932
aI5540
aI5532
aI1053
aI924
aI1508
aI1629
aI5653
aI5661
aI5650
aI5529
aI5531
aI5648
aI921
aI1040
aI923
aI1042
aI1618
aI1497
aI1616
aI1499
aI1620
aI1501
aI925
aI1052
aI5660
aI5652
aI933
aI1044
aI1628
aI1509
aI5533
aI5541
aI3922
aI3801
aI3803
aI3920
aI4377
aI4496
aI4379
aI4498
aI5074
aI4953
aI5072
aI4955
aI5076
aI4957
aI4381
aI4508
aI3932
aI3924
aI4389
aI4500
aI5084
aI4965
aI3805
aI3813
aI3824
aI3899
aI3897
aI3826
aI4475
aI4402
aI4473
aI4400
aI4976
aI5051
aI4978
aI5049
aI4988
aI5061
aI4485
aI4404
aI3828
aI3836
aI4477
aI4412
aI4980
aI5053
aI3909
aI3901
aI2096
aI2171
aI2169
aI2098
aI2747
aI2674
aI2745
aI2672
aI3248
aI3323
aI3250
aI3321
aI3260
aI3333
aI2757
aI2676
aI2100
aI2108
aI2749
aI2684
aI3252
aI3325
aI2181
aI2173
aI2074
aI2193
aI2195
aI2072
aI2769
aI2648
aI2771
aI2650
aI3226
aI3345
aI3224
aI3347
aI3228
aI3349
aI2773
aI2660
aI2084
aI2076
aI2781
aI2652
aI3236
aI3357
aI2197
aI2205
aI3896
aI3827
aI3825
aI3898
aI4403
aI4474
aI4401
aI4472
aI5048
aI4979
aI5050
aI4977
aI5060
aI4989
aI4413
aI4476
aI3900
aI3908
aI4405
aI4484
aI5052
aI4981
aI3837
aI3829
aI3802
aI3921
aI3923
aI3800
aI4497
aI4376
aI4499
aI4378
aI4954
aI5073
aI4952
aI5075
aI4956
aI5077
aI4501
aI4388
aI3812
aI3804
aI4509
aI4380
aI4964
aI5085
aI3925
aI3933
aI5552
aI5627
aI5625
aI5554
aI1019
aI946
aI1017
aI944
aI1520
aI1595
aI1522
aI1593
aI1532
aI1605
aI1029
aI948
aI5556
aI5564
aI1021
aI956
aI1524
aI1597
aI5637
aI5629
aI5624
aI5555
aI5553
aI5626
aI947
aI1018
aI945
aI1016
aI1592
aI1523
aI1594
aI1521
aI1604
aI1533
aI957
aI1020
aI5628
aI5636
aI949
aI1028
aI1596
aI1525
aI5565
aI5557
aI2194
aI2073
aI2075
aI2192
aI2649
aI2768
aI2651
aI2770
aI3346
aI3225
aI3344
aI3227
aI3348
aI3229
aI2653
aI2780
aI2204
aI2196
aI2661
aI2772
aI3356
aI3237
aI2077
aI2085
aI2168
aI2099
aI2097
aI2170
aI2675
aI2746
aI2673
aI2744
aI3320
aI3251
aI3322
aI3249
aI3332
aI3261
aI2685
aI2748
aI2172
aI2180
aI2677
aI2756
aI3324
aI3253
aI2109
aI2101
aI5187
aI5209
aI5210
aI5184
aI601
aI576
aI602
aI579
aI1155
aI1177
aI1152
aI1178
aI1169
aI1198
aI622
aI592
aI5200
aI5201
aI623
aI593
aI1168
aI1199
aI5230
aI5231
aI5211
aI5185
aI5186
aI5208
aI577
aI600
aI578
aI603
aI1179
aI1153
aI1176
aI1154
aI1193
aI1174
aI598
aI616
aI5224
aI5225
aI599
aI617
aI1192
aI1175
aI5206
aI5207
aI5232
aI5258
aI5257
aI5235
aI650
aI627
aI649
aI624
aI1200
aI1226
aI1203
aI1225
aI1216
aI1247
aI671
aI641
aI5249
aI5248
aI670
aI640
aI1217
aI1246
aI5279
aI5278
aI5256
aI5234
aI5233
aI5259
aI626
aI651
aI625
aI648
aI1224
aI1202
aI1227
aI1201
aI1240
aI1223
aI647
aI665
aI5273
aI5272
aI646
aI664
aI1241
aI1222
aI5255
aI5254
aI1755
aI1729
aI1730
aI1752
aI2305
aI2328
aI2306
aI2331
aI2907
aI2881
aI2904
aI2882
aI2921
aI2902
aI2326
aI2344
aI1768
aI1769
aI2327
aI2345
aI2920
aI2903
aI1750
aI1751
aI1800
aI1778
aI1777
aI1803
aI2354
aI2379
aI2353
aI2376
aI2952
aI2930
aI2955
aI2929
aI2968
aI2951
aI2375
aI2393
aI1817
aI1816
aI2374
aI2392
aI2969
aI2950
aI1799
aI1798
aI1776
aI1802
aI1801
aI1779
aI2378
aI2355
aI2377
aI2352
aI2928
aI2954
aI2931
aI2953
aI2944
aI2975
aI2399
aI2369
aI1793
aI1792
aI2398
aI2368
aI2945
aI2974
aI1823
aI1822
aI1731
aI1753
aI1754
aI1728
aI2329
aI2304
aI2330
aI2307
aI2883
aI2905
aI2880
aI2906
aI2897
aI2926
aI2350
aI2320
aI1744
aI1745
aI2351
aI2321
aI2896
aI2927
aI1774
aI1775
aI3459
aI3481
aI3482
aI3456
aI4057
aI4032
aI4058
aI4035
aI4611
aI4633
aI4608
aI4634
aI4625
aI4654
aI4078
aI4048
aI3472
aI3473
aI4079
aI4049
aI4624
aI4655
aI3502
aI3503
aI3483
aI3457
aI3458
aI3480
aI4033
aI4056
aI4034
aI4059
aI4635
aI4609
aI4632
aI4610
aI4649
aI4630
aI4054
aI4072
aI3496
aI3497
aI4055
aI4073
aI4648
aI4631
aI3478
aI3479
aI3528
aI3506
aI3505
aI3531
aI4082
aI4107
aI4081
aI4104
aI4680
aI4658
aI4683
aI4657
aI4696
aI4679
aI4103
aI4121
aI3545
aI3544
aI4102
aI4120
aI4697
aI4678
aI3527
aI3526
aI3504
aI3530
aI3529
aI3507
aI4106
aI4083
aI4105
aI4080
aI4656
aI4682
aI4659
aI4681
aI4672
aI4703
aI4127
aI4097
aI3521
aI3520
aI4126
aI4096
aI4673
aI4702
aI3551
aI3550
aI5499
aI5473
aI5474
aI5496
aI865
aI888
aI866
aI891
aI1467
aI1441
aI1464
aI1442
aI1481
aI1462
aI886
aI904
aI5512
aI5513
aI887
aI905
aI1480
aI1463
aI5494
aI5495
aI5475
aI5497
aI5498
aI5472
aI889
aI864
aI890
aI867
aI1443
aI1465
aI1440
aI1466
aI1457
aI1486
aI910
aI880
aI5488
aI5489
aI911
aI881
aI1456
aI1487
aI5518
aI5519
aI3747
aI3769
aI3770
aI3744
aI4345
aI4320
aI4346
aI4323
aI4899
aI4921
aI4896
aI4922
aI4913
aI4942
aI4366
aI4336
aI3760
aI3761
aI4367
aI4337
aI4912
aI4943
aI3790
aI3791
aI3936
aI3962
aI3961
aI3939
aI4538
aI4515
aI4537
aI4512
aI5088
aI5114
aI5091
aI5113
aI5104
aI5135
aI4559
aI4529
aI3953
aI3952
aI4558
aI4528
aI5105
aI5134
aI3983
aI3982
aI2208
aI2234
aI2233
aI2211
aI2810
aI2787
aI2809
aI2784
aI3360
aI3386
aI3363
aI3385
aI3376
aI3407
aI2831
aI2801
aI2225
aI2224
aI2830
aI2800
aI3377
aI3406
aI2255
aI2254
aI2043
aI2017
aI2018
aI2040
aI2593
aI2616
aI2594
aI2619
aI3195
aI3169
aI3192
aI3170
aI3209
aI3190
aI2614
aI2632
aI2056
aI2057
aI2615
aI2633
aI3208
aI3191
aI2038
aI2039
aI3960
aI3938
aI3937
aI3963
aI4514
aI4539
aI4513
aI4536
aI5112
aI5090
aI5115
aI5089
aI5128
aI5111
aI4535
aI4553
aI3977
aI3976
aI4534
aI4552
aI5129
aI5110
aI3959
aI3958
aI3771
aI3745
aI3746
aI3768
aI4321
aI4344
aI4322
aI4347
aI4923
aI4897
aI4920
aI4898
aI4937
aI4918
aI4342
aI4360
aI3784
aI3785
aI4343
aI4361
aI4936
aI4919
aI3766
aI3767
aI5664
aI5690
aI5689
aI5667
aI1082
aI1059
aI1081
aI1056
aI1632
aI1658
aI1635
aI1657
aI1648
aI1679
aI1103
aI1073
aI5681
aI5680
aI1102
aI1072
aI1649
aI1678
aI5711
aI5710
aI5688
aI5666
aI5665
aI5691
aI1058
aI1083
aI1057
aI1080
aI1656
aI1634
aI1659
aI1633
aI1672
aI1655
aI1079
aI1097
aI5705
aI5704
aI1078
aI1096
aI1673
aI1654
aI5687
aI5686
aI2019
aI2041
aI2042
aI2016
aI2617
aI2592
aI2618
aI2595
aI3171
aI3193
aI3168
aI3194
aI3185
aI3214
aI2638
aI2608
aI2032
aI2033
aI2639
aI2609
aI3184
aI3215
aI2062
aI2063
aI2232
aI2210
aI2209
aI2235
aI2786
aI2811
aI2785
aI2808
aI3384
aI3362
aI3387
aI3361
aI3400
aI3383
aI2807
aI2825
aI2249
aI2248
aI2806
aI2824
aI3401
aI3382
aI2231
aI2230
aI5786
aI5810
aI5835
aI5763
aI6386
aI6339
aI6411
aI6362
aI10394
aI10418
aI10371
aI10443
aI6314
aI6290
aI10898
aI10779
aI6747
aI6890
aI10755
aI10922
aI6171
aI6147
aI6866
aI6723
aI5809
aI5785
aI5760
aI5832
aI6361
aI6408
aI6336
aI6385
aI10417
aI10393
aI10440
aI10368
aI6289
aI6313
aI10921
aI10752
aI6720
aI6865
aI10776
aI10897
aI6144
aI6168
aI6889
aI6744
aI5808
aI5784
aI5761
aI5833
aI6360
aI6409
aI6337
aI6384
aI10416
aI10392
aI10441
aI10369
aI6288
aI6312
aI10920
aI10753
aI6721
aI6864
aI10777
aI10896
aI6145
aI6169
aI6888
aI6745
aI5787
aI5811
aI5834
aI5762
aI6387
aI6338
aI6410
aI6363
aI10395
aI10419
aI10370
aI10442
aI6315
aI6291
aI10899
aI10778
aI6746
aI6891
aI10754
aI10923
aI6170
aI6146
aI6867
aI6722
aI7537
aI7513
aI7488
aI7560
aI8089
aI8136
aI8064
aI8113
aI6961
aI6937
aI6984
aI6912
aI8017
aI8041
aI7465
aI7296
aI8448
aI8593
aI7320
aI7441
aI7872
aI7896
aI8617
aI8472
aI7515
aI7539
aI7562
aI7490
aI8115
aI8066
aI8138
aI8091
aI6939
aI6963
aI6914
aI6986
aI8043
aI8019
aI7443
aI7322
aI8474
aI8619
aI7298
aI7467
aI7898
aI7874
aI8595
aI8450
aI7536
aI7512
aI7489
aI7561
aI8088
aI8137
aI8065
aI8112
aI6960
aI6936
aI6985
aI6913
aI8016
aI8040
aI7464
aI7297
aI8449
aI8592
aI7321
aI7440
aI7873
aI7897
aI8616
aI8473
aI7514
aI7538
aI7563
aI7491
aI8114
aI8067
aI8139
aI8090
aI6938
aI6962
aI6915
aI6987
aI8042
aI8018
aI7442
aI7323
aI8475
aI8618
aI7299
aI7466
aI7899
aI7875
aI8594
aI8451
aI9242
aI9266
aI9291
aI9219
aI9842
aI9795
aI9867
aI9818
aI8666
aI8690
aI8643
aI8715
aI9770
aI9746
aI9170
aI9051
aI10203
aI10346
aI9027
aI9194
aI9627
aI9603
aI10322
aI10179
aI9265
aI9241
aI9216
aI9288
aI9817
aI9864
aI9792
aI9841
aI8689
aI8665
aI8712
aI8640
aI9745
aI9769
aI9193
aI9024
aI10176
aI10321
aI9048
aI9169
aI9600
aI9624
aI10345
aI10200
aI9243
aI9267
aI9290
aI9218
aI9843
aI9794
aI9866
aI9819
aI8667
aI8691
aI8642
aI8714
aI9771
aI9747
aI9171
aI9050
aI10202
aI10347
aI9026
aI9195
aI9626
aI9602
aI10323
aI10178
aI9264
aI9240
aI9217
aI9289
aI9816
aI9865
aI9793
aI9840
aI8688
aI8664
aI8713
aI8641
aI9744
aI9768
aI9192
aI9025
aI10177
aI10320
aI9049
aI9168
aI9601
aI9625
aI10344
aI10201
aI9261
aI9285
aI9308
aI9236
aI9861
aI9812
aI9884
aI9837
aI8685
aI8709
aI8660
aI8732
aI9789
aI9765
aI9189
aI9068
aI10220
aI10365
aI9044
aI9213
aI9644
aI9620
aI10341
aI10196
aI9276
aI9252
aI9229
aI9301
aI9828
aI9877
aI9805
aI9852
aI8700
aI8676
aI8725
aI8653
aI9756
aI9780
aI9204
aI9037
aI10189
aI10332
aI9061
aI9180
aI9613
aI9637
aI10356
aI10213
aI7548
aI7524
aI7501
aI7573
aI8100
aI8149
aI8077
aI8124
aI6972
aI6948
aI6997
aI6925
aI8028
aI8052
aI7476
aI7309
aI8461
aI8604
aI7333
aI7452
aI7885
aI7909
aI8628
aI8485
aI7532
aI7556
aI7581
aI7509
aI8132
aI8085
aI8157
aI8108
aI6956
aI6980
aI6933
aI7005
aI8060
aI8036
aI7460
aI7341
aI8493
aI8636
aI7317
aI7484
aI7917
aI7893
aI8612
aI8469
aI5804
aI5828
aI5853
aI5781
aI6404
aI6357
aI6429
aI6380
aI10412
aI10436
aI10389
aI10461
aI6332
aI6308
aI10916
aI10797
aI6765
aI6908
aI10773
aI10940
aI6189
aI6165
aI6884
aI6741
aI5805
aI5829
aI5852
aI5780
aI6405
aI6356
aI6428
aI6381
aI10413
aI10437
aI10388
aI10460
aI6333
aI6309
aI10917
aI10796
aI6764
aI6909
aI10772
aI10941
aI6188
aI6164
aI6885
aI6740
aI7549
aI7525
aI7500
aI7572
aI8101
aI8148
aI8076
aI8125
aI6973
aI6949
aI6996
aI6924
aI8029
aI8053
aI7477
aI7308
aI8460
aI8605
aI7332
aI7453
aI7884
aI7908
aI8629
aI8484
aI7533
aI7557
aI7580
aI7508
aI8133
aI8084
aI8156
aI8109
aI6957
aI6981
aI6932
aI7004
aI8061
aI8037
aI7461
aI7340
aI8492
aI8637
aI7316
aI7485
aI7916
aI7892
aI8613
aI8468
aI9260
aI9284
aI9309
aI9237
aI9860
aI9813
aI9885
aI9836
aI8684
aI8708
aI8661
aI8733
aI9788
aI9764
aI9188
aI9069
aI10221
aI10364
aI9045
aI9212
aI9645
aI9621
aI10340
aI10197
aI9277
aI9253
aI9228
aI9300
aI9829
aI9876
aI9804
aI9853
aI8701
aI8677
aI8724
aI8652
aI9757
aI9781
aI9205
aI9036
aI10188
aI10333
aI9060
aI9181
aI9612
aI9636
aI10357
aI10212
aI5820
aI5796
aI5773
aI5845
aI6372
aI6421
aI6349
aI6396
aI10428
aI10404
aI10453
aI10381
aI6300
aI6324
aI10932
aI10765
aI6733
aI6876
aI10789
aI10908
aI6157
aI6181
aI6900
aI6757
aI5821
aI5797
aI5772
aI5844
aI6373
aI6420
aI6348
aI6397
aI10429
aI10405
aI10452
aI10380
aI6301
aI6325
aI10933
aI10764
aI6732
aI6877
aI10788
aI10909
aI6156
aI6180
aI6901
aI6756
aI5790
aI5814
aI5837
aI5765
aI6390
aI6341
aI6413
aI6366
aI10398
aI10422
aI10373
aI10445
aI6318
aI6294
aI10902
aI10781
aI6749
aI6894
aI10757
aI10926
aI6173
aI6149
aI6870
aI6725
aI5812
aI5788
aI5767
aI5839
aI6364
aI6415
aI6343
aI6388
aI10420
aI10396
aI10447
aI10375
aI6292
aI6316
aI10924
aI10759
aI6727
aI6868
aI10783
aI10900
aI6151
aI6175
aI6892
aI6751
aI5815
aI5791
aI5764
aI5836
aI6367
aI6412
aI6340
aI6391
aI10423
aI10399
aI10444
aI10372
aI6295
aI6319
aI10927
aI10756
aI6724
aI6871
aI10780
aI10903
aI6148
aI6172
aI6895
aI6748
aI5789
aI5813
aI5838
aI5766
aI6389
aI6342
aI6414
aI6365
aI10397
aI10421
aI10374
aI10446
aI6317
aI6293
aI10901
aI10782
aI6750
aI6893
aI10758
aI10925
aI6174
aI6150
aI6869
aI6726
aI7540
aI7516
aI7495
aI7567
aI8092
aI8143
aI8071
aI8116
aI6964
aI6940
aI6991
aI6919
aI8020
aI8044
aI7468
aI7303
aI8455
aI8596
aI7327
aI7444
aI7879
aI7903
aI8620
aI8479
aI7517
aI7541
aI7566
aI7494
aI8117
aI8070
aI8142
aI8093
aI6941
aI6965
aI6918
aI6990
aI8045
aI8021
aI7445
aI7326
aI8478
aI8621
aI7302
aI7469
aI7902
aI7878
aI8597
aI8454
aI7543
aI7519
aI7492
aI7564
aI8095
aI8140
aI8068
aI8119
aI6967
aI6943
aI6988
aI6916
aI8023
aI8047
aI7471
aI7300
aI8452
aI8599
aI7324
aI7447
aI7876
aI7900
aI8623
aI8476
aI7518
aI7542
aI7565
aI7493
aI8118
aI8069
aI8141
aI8094
aI6942
aI6966
aI6917
aI6989
aI8046
aI8022
aI7446
aI7325
aI8477
aI8622
aI7301
aI7470
aI7901
aI7877
aI8598
aI8453
aI9246
aI9270
aI9293
aI9221
aI9846
aI9797
aI9869
aI9822
aI8670
aI8694
aI8645
aI8717
aI9774
aI9750
aI9174
aI9053
aI10205
aI10350
aI9029
aI9198
aI9629
aI9605
aI10326
aI10181
aI9268
aI9244
aI9223
aI9295
aI9820
aI9871
aI9799
aI9844
aI8692
aI8668
aI8719
aI8647
aI9748
aI9772
aI9196
aI9031
aI10183
aI10324
aI9055
aI9172
aI9607
aI9631
aI10348
aI10207
aI9245
aI9269
aI9294
aI9222
aI9845
aI9798
aI9870
aI9821
aI8669
aI8693
aI8646
aI8718
aI9773
aI9749
aI9173
aI9054
aI10206
aI10349
aI9030
aI9197
aI9630
aI9606
aI10325
aI10182
aI9271
aI9247
aI9220
aI9292
aI9823
aI9868
aI9796
aI9847
aI8695
aI8671
aI8716
aI8644
aI9751
aI9775
aI9199
aI9028
aI10180
aI10327
aI9052
aI9175
aI9604
aI9628
aI10351
aI10204
aI9263
aI9287
aI9304
aI9232
aI9863
aI9808
aI9880
aI9839
aI8687
aI8711
aI8656
aI8728
aI9791
aI9767
aI9191
aI9064
aI10216
aI10367
aI9040
aI9215
aI9640
aI9616
aI10343
aI10192
aI9281
aI9257
aI9238
aI9310
aI9833
aI9886
aI9814
aI9857
aI8705
aI8681
aI8734
aI8662
aI9761
aI9785
aI9209
aI9046
aI10198
aI10337
aI9070
aI9185
aI9622
aI9646
aI10361
aI10222
aI7553
aI7529
aI7510
aI7582
aI8105
aI8158
aI8086
aI8129
aI6977
aI6953
aI7006
aI6934
aI8033
aI8057
aI7481
aI7318
aI8470
aI8609
aI7342
aI7457
aI7894
aI7918
aI8633
aI8494
aI7528
aI7552
aI7583
aI7511
aI8128
aI8087
aI8159
aI8104
aI6952
aI6976
aI6935
aI7007
aI8056
aI8032
aI7456
aI7343
aI8495
aI8632
aI7319
aI7480
aI7919
aI7895
aI8608
aI8471
aI5800
aI5824
aI5855
aI5783
aI6400
aI6359
aI6431
aI6376
aI10408
aI10432
aI10391
aI10463
aI6328
aI6304
aI10912
aI10799
aI6767
aI6904
aI10775
aI10936
aI6191
aI6167
aI6880
aI6743
aI5807
aI5831
aI5848
aI5776
aI6407
aI6352
aI6424
aI6383
aI10415
aI10439
aI10384
aI10456
aI6335
aI6311
aI10919
aI10792
aI6760
aI6911
aI10768
aI10943
aI6184
aI6160
aI6887
aI6736
aI7558
aI7534
aI7505
aI7577
aI8110
aI8153
aI8081
aI8134
aI6982
aI6958
aI7001
aI6929
aI8038
aI8062
aI7486
aI7313
aI8465
aI8614
aI7337
aI7462
aI7889
aI7913
aI8638
aI8489
aI7535
aI7559
aI7576
aI7504
aI8135
aI8080
aI8152
aI8111
aI6959
aI6983
aI6928
aI7000
aI8063
aI8039
aI7463
aI7336
aI8488
aI8639
aI7312
aI7487
aI7912
aI7888
aI8615
aI8464
aI9256
aI9280
aI9311
aI9239
aI9856
aI9815
aI9887
aI9832
aI8680
aI8704
aI8663
aI8735
aI9784
aI9760
aI9184
aI9071
aI10223
aI10360
aI9047
aI9208
aI9647
aI9623
aI10336
aI10199
aI9286
aI9262
aI9233
aI9305
aI9838
aI9881
aI9809
aI9862
aI8710
aI8686
aI8729
aI8657
aI9766
aI9790
aI9214
aI9041
aI10193
aI10342
aI9065
aI9190
aI9617
aI9641
aI10366
aI10217
aI5825
aI5801
aI5782
aI5854
aI6377
aI6430
aI6358
aI6401
aI10433
aI10409
aI10462
aI10390
aI6305
aI6329
aI10937
aI10774
aI6742
aI6881
aI10798
aI10913
aI6166
aI6190
aI6905
aI6766
aI5830
aI5806
aI5777
aI5849
aI6382
aI6425
aI6353
aI6406
aI10438
aI10414
aI10457
aI10385
aI6310
aI6334
aI10942
aI10769
aI6737
aI6886
aI10793
aI10918
aI6161
aI6185
aI6910
aI6761
aI5867
aI5915
aI5890
aI5938
aI6491
aI6514
aI6466
aI6443
aI10475
aI10523
aI10546
aI10498
aI6203
aI6107
aI10715
aI10834
aI6802
aI6779
aI10738
aI10811
aI6226
aI6130
aI6683
aI6706
aI5913
aI5865
aI5936
aI5888
aI6441
aI6464
aI6512
aI6489
aI10521
aI10473
aI10496
aI10544
aI6105
aI6201
aI10809
aI10736
aI6704
aI6681
aI10832
aI10713
aI6128
aI6224
aI6777
aI6800
aI5912
aI5864
aI5937
aI5889
aI6440
aI6465
aI6513
aI6488
aI10520
aI10472
aI10497
aI10545
aI6104
aI6200
aI10808
aI10737
aI6705
aI6680
aI10833
aI10712
aI6129
aI6225
aI6776
aI6801
aI5866
aI5914
aI5891
aI5939
aI6490
aI6515
aI6467
aI6442
aI10474
aI10522
aI10547
aI10499
aI6202
aI6106
aI10714
aI10835
aI6803
aI6778
aI10739
aI10810
aI6227
aI6131
aI6682
aI6707
aI7641
aI7593
aI7664
aI7616
aI8169
aI8192
aI8240
aI8217
aI7065
aI7017
aI7040
aI7088
aI7833
aI7929
aI7353
aI7280
aI8432
aI8409
aI7376
aI7257
aI7856
aI7952
aI8505
aI8528
aI7594
aI7642
aI7619
aI7667
aI8218
aI8243
aI8195
aI8170
aI7018
aI7066
aI7091
aI7043
aI7930
aI7834
aI7258
aI7379
aI8531
aI8506
aI7283
aI7354
aI7955
aI7859
aI8410
aI8435
aI7640
aI7592
aI7665
aI7617
aI8168
aI8193
aI8241
aI8216
aI7064
aI7016
aI7041
aI7089
aI7832
aI7928
aI7352
aI7281
aI8433
aI8408
aI7377
aI7256
aI7857
aI7953
aI8504
aI8529
aI7595
aI7643
aI7618
aI7666
aI8219
aI8242
aI8194
aI8171
aI7019
aI7067
aI7090
aI7042
aI7931
aI7835
aI7259
aI7378
aI8530
aI8507
aI7282
aI7355
aI7954
aI7858
aI8411
aI8434
aI9323
aI9371
aI9346
aI9394
aI9947
aI9970
aI9922
aI9899
aI8747
aI8795
aI8818
aI8770
aI9659
aI9563
aI8987
aI9106
aI10258
aI10235
aI9010
aI9083
aI9682
aI9586
aI10139
aI10162
aI9369
aI9321
aI9392
aI9344
aI9897
aI9920
aI9968
aI9945
aI8793
aI8745
aI8768
aI8816
aI9561
aI9657
aI9081
aI9008
aI10160
aI10137
aI9104
aI8985
aI9584
aI9680
aI10233
aI10256
aI9322
aI9370
aI9347
aI9395
aI9946
aI9971
aI9923
aI9898
aI8746
aI8794
aI8819
aI8771
aI9658
aI9562
aI8986
aI9107
aI10259
aI10234
aI9011
aI9082
aI9683
aI9587
aI10138
aI10163
aI9368
aI9320
aI9393
aI9345
aI9896
aI9921
aI9969
aI9944
aI8792
aI8744
aI8769
aI8817
aI9560
aI9656
aI9080
aI9009
aI10161
aI10136
aI9105
aI8984
aI9585
aI9681
aI10232
aI10257
aI9330
aI9378
aI9351
aI9399
aI9954
aI9975
aI9927
aI9906
aI8754
aI8802
aI8823
aI8775
aI9666
aI9570
aI8994
aI9111
aI10263
aI10242
aI9015
aI9090
aI9687
aI9591
aI10146
aI10167
aI9379
aI9331
aI9398
aI9350
aI9907
aI9926
aI9974
aI9955
aI8803
aI8755
aI8774
aI8822
aI9571
aI9667
aI9091
aI9014
aI10166
aI10147
aI9110
aI8995
aI9590
aI9686
aI10243
aI10262
aI7651
aI7603
aI7670
aI7622
aI8179
aI8198
aI8246
aI8227
aI7075
aI7027
aI7046
aI7094
aI7843
aI7939
aI7363
aI7286
aI8438
aI8419
aI7382
aI7267
aI7862
aI7958
aI8515
aI8534
aI7599
aI7647
aI7626
aI7674
aI8223
aI8250
aI8202
aI8175
aI7023
aI7071
aI7098
aI7050
aI7935
aI7839
aI7263
aI7386
aI8538
aI8511
aI7290
aI7359
aI7962
aI7866
aI8415
aI8442
aI5871
aI5919
aI5898
aI5946
aI6495
aI6522
aI6474
aI6447
aI10479
aI10527
aI10554
aI10506
aI6207
aI6111
aI10719
aI10842
aI6810
aI6783
aI10746
aI10815
aI6234
aI6138
aI6687
aI6714
aI5874
aI5922
aI5895
aI5943
aI6498
aI6519
aI6471
aI6450
aI10482
aI10530
aI10551
aI10503
aI6210
aI6114
aI10722
aI10839
aI6807
aI6786
aI10743
aI10818
aI6231
aI6135
aI6690
aI6711
aI7646
aI7598
aI7675
aI7627
aI8174
aI8203
aI8251
aI8222
aI7070
aI7022
aI7051
aI7099
aI7838
aI7934
aI7358
aI7291
aI8443
aI8414
aI7387
aI7262
aI7867
aI7963
aI8510
aI8539
aI7602
aI7650
aI7623
aI7671
aI8226
aI8247
aI8199
aI8178
aI7026
aI7074
aI7095
aI7047
aI7938
aI7842
aI7266
aI7383
aI8535
aI8514
aI7287
aI7362
aI7959
aI7863
aI8418
aI8439
aI9327
aI9375
aI9354
aI9402
aI9951
aI9978
aI9930
aI9903
aI8751
aI8799
aI8826
aI8778
aI9663
aI9567
aI8991
aI9114
aI10266
aI10239
aI9018
aI9087
aI9690
aI9594
aI10143
aI10170
aI9374
aI9326
aI9403
aI9355
aI9902
aI9931
aI9979
aI9950
aI8798
aI8750
aI8779
aI8827
aI9566
aI9662
aI9086
aI9019
aI10171
aI10142
aI9115
aI8990
aI9595
aI9691
aI10238
aI10267
aI5923
aI5875
aI5942
aI5894
aI6451
aI6470
aI6518
aI6499
aI10531
aI10483
aI10502
aI10550
aI6115
aI6211
aI10819
aI10742
aI6710
aI6691
aI10838
aI10723
aI6134
aI6230
aI6787
aI6806
aI5918
aI5870
aI5947
aI5899
aI6446
aI6475
aI6523
aI6494
aI10526
aI10478
aI10507
aI10555
aI6110
aI6206
aI10814
aI10747
aI6715
aI6686
aI10843
aI10718
aI6139
aI6235
aI6782
aI6811
aI5858
aI5906
aI5883
aI5931
aI6482
aI6507
aI6459
aI6434
aI10466
aI10514
aI10539
aI10491
aI6194
aI6098
aI10706
aI10827
aI6795
aI6770
aI10731
aI10802
aI6219
aI6123
aI6674
aI6699
aI5905
aI5857
aI5928
aI5880
aI6433
aI6456
aI6504
aI6481
aI10513
aI10465
aI10488
aI10536
aI6097
aI6193
aI10801
aI10728
aI6696
aI6673
aI10824
aI10705
aI6120
aI6216
aI6769
aI6792
aI5904
aI5856
aI5929
aI5881
aI6432
aI6457
aI6505
aI6480
aI10512
aI10464
aI10489
aI10537
aI6096
aI6192
aI10800
aI10729
aI6697
aI6672
aI10825
aI10704
aI6121
aI6217
aI6768
aI6793
aI5859
aI5907
aI5882
aI5930
aI6483
aI6506
aI6458
aI6435
aI10467
aI10515
aI10538
aI10490
aI6195
aI6099
aI10707
aI10826
aI6794
aI6771
aI10730
aI10803
aI6218
aI6122
aI6675
aI6698
aI7633
aI7585
aI7656
aI7608
aI8161
aI8184
aI8232
aI8209
aI7057
aI7009
aI7032
aI7080
aI7825
aI7921
aI7345
aI7272
aI8424
aI8401
aI7368
aI7249
aI7848
aI7944
aI8497
aI8520
aI7587
aI7635
aI7610
aI7658
aI8211
aI8234
aI8186
aI8163
aI7011
aI7059
aI7082
aI7034
aI7923
aI7827
aI7251
aI7370
aI8522
aI8499
aI7274
aI7347
aI7946
aI7850
aI8403
aI8426
aI7632
aI7584
aI7657
aI7609
aI8160
aI8185
aI8233
aI8208
aI7056
aI7008
aI7033
aI7081
aI7824
aI7920
aI7344
aI7273
aI8425
aI8400
aI7369
aI7248
aI7849
aI7945
aI8496
aI8521
aI7586
aI7634
aI7611
aI7659
aI8210
aI8235
aI8187
aI8162
aI7010
aI7058
aI7083
aI7035
aI7922
aI7826
aI7250
aI7371
aI8523
aI8498
aI7275
aI7346
aI7947
aI7851
aI8402
aI8427
aI9314
aI9362
aI9339
aI9387
aI9938
aI9963
aI9915
aI9890
aI8738
aI8786
aI8811
aI8763
aI9650
aI9554
aI8978
aI9099
aI10251
aI10226
aI9003
aI9074
aI9675
aI9579
aI10130
aI10155
aI9361
aI9313
aI9384
aI9336
aI9889
aI9912
aI9960
aI9937
aI8785
aI8737
aI8760
aI8808
aI9553
aI9649
aI9073
aI9000
aI10152
aI10129
aI9096
aI8977
aI9576
aI9672
aI10225
aI10248
aI9315
aI9363
aI9338
aI9386
aI9939
aI9962
aI9914
aI9891
aI8739
aI8787
aI8810
aI8762
aI9651
aI9555
aI8979
aI9098
aI10250
aI10227
aI9002
aI9075
aI9674
aI9578
aI10131
aI10154
aI9360
aI9312
aI9385
aI9337
aI9888
aI9913
aI9961
aI9936
aI8784
aI8736
aI8761
aI8809
aI9552
aI9648
aI9072
aI9001
aI10153
aI10128
aI9097
aI8976
aI9577
aI9673
aI10224
aI10249
aI9333
aI9381
aI9356
aI9404
aI9957
aI9980
aI9932
aI9909
aI8757
aI8805
aI8828
aI8780
aI9669
aI9573
aI8997
aI9116
aI10268
aI10245
aI9020
aI9093
aI9692
aI9596
aI10149
aI10172
aI9372
aI9324
aI9397
aI9349
aI9900
aI9925
aI9973
aI9948
aI8796
aI8748
aI8773
aI8821
aI9564
aI9660
aI9084
aI9013
aI10165
aI10140
aI9109
aI8988
aI9589
aI9685
aI10236
aI10261
aI7644
aI7596
aI7669
aI7621
aI8172
aI8197
aI8245
aI8220
aI7068
aI7020
aI7045
aI7093
aI7836
aI7932
aI7356
aI7285
aI8437
aI8412
aI7381
aI7260
aI7861
aI7957
aI8508
aI8533
aI7604
aI7652
aI7629
aI7677
aI8228
aI8253
aI8205
aI8180
aI7028
aI7076
aI7101
aI7053
aI7940
aI7844
aI7268
aI7389
aI8541
aI8516
aI7293
aI7364
aI7965
aI7869
aI8420
aI8445
aI5876
aI5924
aI5901
aI5949
aI6500
aI6525
aI6477
aI6452
aI10484
aI10532
aI10557
aI10509
aI6212
aI6116
aI10724
aI10845
aI6813
aI6788
aI10749
aI10820
aI6237
aI6141
aI6692
aI6717
aI5877
aI5925
aI5900
aI5948
aI6501
aI6524
aI6476
aI6453
aI10485
aI10533
aI10556
aI10508
aI6213
aI6117
aI10725
aI10844
aI6812
aI6789
aI10748
aI10821
aI6236
aI6140
aI6693
aI6716
aI7645
aI7597
aI7668
aI7620
aI8173
aI8196
aI8244
aI8221
aI7069
aI7021
aI7044
aI7092
aI7837
aI7933
aI7357
aI7284
aI8436
aI8413
aI7380
aI7261
aI7860
aI7956
aI8509
aI8532
aI7605
aI7653
aI7628
aI7676
aI8229
aI8252
aI8204
aI8181
aI7029
aI7077
aI7100
aI7052
aI7941
aI7845
aI7269
aI7388
aI8540
aI8517
aI7292
aI7365
aI7964
aI7868
aI8421
aI8444
aI9332
aI9380
aI9357
aI9405
aI9956
aI9981
aI9933
aI9908
aI8756
aI8804
aI8829
aI8781
aI9668
aI9572
aI8996
aI9117
aI10269
aI10244
aI9021
aI9092
aI9693
aI9597
aI10148
aI10173
aI9373
aI9325
aI9396
aI9348
aI9901
aI9924
aI9972
aI9949
aI8797
aI8749
aI8772
aI8820
aI9565
aI9661
aI9085
aI9012
aI10164
aI10141
aI9108
aI8989
aI9588
aI9684
aI10237
aI10260
aI5916
aI5868
aI5941
aI5893
aI6444
aI6469
aI6517
aI6492
aI10524
aI10476
aI10501
aI10549
aI6108
aI6204
aI10812
aI10741
aI6709
aI6684
aI10837
aI10716
aI6133
aI6229
aI6780
aI6805
aI5917
aI5869
aI5940
aI5892
aI6445
aI6468
aI6516
aI6493
aI10525
aI10477
aI10500
aI10548
aI6109
aI6205
aI10813
aI10740
aI6708
aI6685
aI10836
aI10717
aI6132
aI6228
aI6781
aI6804
aI5862
aI5910
aI5885
aI5933
aI6486
aI6509
aI6461
aI6438
aI10470
aI10518
aI10541
aI10493
aI6198
aI6102
aI10710
aI10829
aI6797
aI6774
aI10733
aI10806
aI6221
aI6125
aI6678
aI6701
aI5908
aI5860
aI5935
aI5887
aI6436
aI6463
aI6511
aI6484
aI10516
aI10468
aI10495
aI10543
aI6100
aI6196
aI10804
aI10735
aI6703
aI6676
aI10831
aI10708
aI6127
aI6223
aI6772
aI6799
aI5911
aI5863
aI5932
aI5884
aI6439
aI6460
aI6508
aI6487
aI10519
aI10471
aI10492
aI10540
aI6103
aI6199
aI10807
aI10732
aI6700
aI6679
aI10828
aI10711
aI6124
aI6220
aI6775
aI6796
aI5861
aI5909
aI5886
aI5934
aI6485
aI6510
aI6462
aI6437
aI10469
aI10517
aI10542
aI10494
aI6197
aI6101
aI10709
aI10830
aI6798
aI6773
aI10734
aI10805
aI6222
aI6126
aI6677
aI6702
aI7636
aI7588
aI7663
aI7615
aI8164
aI8191
aI8239
aI8212
aI7060
aI7012
aI7039
aI7087
aI7828
aI7924
aI7348
aI7279
aI8431
aI8404
aI7375
aI7252
aI7855
aI7951
aI8500
aI8527
aI7589
aI7637
aI7614
aI7662
aI8213
aI8238
aI8190
aI8165
aI7013
aI7061
aI7086
aI7038
aI7925
aI7829
aI7253
aI7374
aI8526
aI8501
aI7278
aI7349
aI7950
aI7854
aI8405
aI8430
aI7639
aI7591
aI7660
aI7612
aI8167
aI8188
aI8236
aI8215
aI7063
aI7015
aI7036
aI7084
aI7831
aI7927
aI7351
aI7276
aI8428
aI8407
aI7372
aI7255
aI7852
aI7948
aI8503
aI8524
aI7590
aI7638
aI7613
aI7661
aI8214
aI8237
aI8189
aI8166
aI7014
aI7062
aI7085
aI7037
aI7926
aI7830
aI7254
aI7373
aI8525
aI8502
aI7277
aI7350
aI7949
aI7853
aI8406
aI8429
aI9318
aI9366
aI9341
aI9389
aI9942
aI9965
aI9917
aI9894
aI8742
aI8790
aI8813
aI8765
aI9654
aI9558
aI8982
aI9101
aI10253
aI10230
aI9005
aI9078
aI9677
aI9581
aI10134
aI10157
aI9364
aI9316
aI9391
aI9343
aI9892
aI9919
aI9967
aI9940
aI8788
aI8740
aI8767
aI8815
aI9556
aI9652
aI9076
aI9007
aI10159
aI10132
aI9103
aI8980
aI9583
aI9679
aI10228
aI10255
aI9317
aI9365
aI9342
aI9390
aI9941
aI9966
aI9918
aI9893
aI8741
aI8789
aI8814
aI8766
aI9653
aI9557
aI8981
aI9102
aI10254
aI10229
aI9006
aI9077
aI9678
aI9582
aI10133
aI10158
aI9367
aI9319
aI9388
aI9340
aI9895
aI9916
aI9964
aI9943
aI8791
aI8743
aI8764
aI8812
aI9559
aI9655
aI9079
aI9004
aI10156
aI10135
aI9100
aI8983
aI9580
aI9676
aI10231
aI10252
aI9335
aI9383
aI9352
aI9400
aI9959
aI9976
aI9928
aI9911
aI8759
aI8807
aI8824
aI8776
aI9671
aI9575
aI8999
aI9112
aI10264
aI10247
aI9016
aI9095
aI9688
aI9592
aI10151
aI10168
aI9377
aI9329
aI9406
aI9358
aI9905
aI9934
aI9982
aI9953
aI8801
aI8753
aI8782
aI8830
aI9569
aI9665
aI9089
aI9022
aI10174
aI10145
aI9118
aI8993
aI9598
aI9694
aI10241
aI10270
aI7649
aI7601
aI7678
aI7630
aI8177
aI8206
aI8254
aI8225
aI7073
aI7025
aI7054
aI7102
aI7841
aI7937
aI7361
aI7294
aI8446
aI8417
aI7390
aI7265
aI7870
aI7966
aI8513
aI8542
aI7600
aI7648
aI7631
aI7679
aI8224
aI8255
aI8207
aI8176
aI7024
aI7072
aI7103
aI7055
aI7936
aI7840
aI7264
aI7391
aI8543
aI8512
aI7295
aI7360
aI7967
aI7871
aI8416
aI8447
aI5872
aI5920
aI5903
aI5951
aI6496
aI6527
aI6479
aI6448
aI10480
aI10528
aI10559
aI10511
aI6208
aI6112
aI10720
aI10847
aI6815
aI6784
aI10751
aI10816
aI6239
aI6143
aI6688
aI6719
aI5879
aI5927
aI5896
aI5944
aI6503
aI6520
aI6472
aI6455
aI10487
aI10535
aI10552
aI10504
aI6215
aI6119
aI10727
aI10840
aI6808
aI6791
aI10744
aI10823
aI6232
aI6136
aI6695
aI6712
aI7654
aI7606
aI7673
aI7625
aI8182
aI8201
aI8249
aI8230
aI7078
aI7030
aI7049
aI7097
aI7846
aI7942
aI7366
aI7289
aI8441
aI8422
aI7385
aI7270
aI7865
aI7961
aI8518
aI8537
aI7607
aI7655
aI7624
aI7672
aI8231
aI8248
aI8200
aI8183
aI7031
aI7079
aI7096
aI7048
aI7943
aI7847
aI7271
aI7384
aI8536
aI8519
aI7288
aI7367
aI7960
aI7864
aI8423
aI8440
aI9328
aI9376
aI9359
aI9407
aI9952
aI9983
aI9935
aI9904
aI8752
aI8800
aI8831
aI8783
aI9664
aI9568
aI8992
aI9119
aI10271
aI10240
aI9023
aI9088
aI9695
aI9599
aI10144
aI10175
aI9382
aI9334
aI9401
aI9353
aI9910
aI9929
aI9977
aI9958
aI8806
aI8758
aI8777
aI8825
aI9574
aI9670
aI9094
aI9017
aI10169
aI10150
aI9113
aI8998
aI9593
aI9689
aI10246
aI10265
aI5921
aI5873
aI5950
aI5902
aI6449
aI6478
aI6526
aI6497
aI10529
aI10481
aI10510
aI10558
aI6113
aI6209
aI10817
aI10750
aI6718
aI6689
aI10846
aI10721
aI6142
aI6238
aI6785
aI6814
aI5926
aI5878
aI5945
aI5897
aI6454
aI6473
aI6521
aI6502
aI10534
aI10486
aI10505
aI10553
aI6118
aI6214
aI10822
aI10745
aI6713
aI6694
aI10841
aI10726
aI6137
aI6233
aI6790
aI6809
aI5987
aI6035
aI6010
aI5962
aI6611
aI6538
aI6586
aI6563
aI10595
aI10643
aI10570
aI10618
aI6275
aI6083
aI10691
aI10666
aI6634
aI6851
aI10858
aI10883
aI6058
aI6250
aI6659
aI6826
aI6033
aI5985
aI5960
aI6008
aI6561
aI6584
aI6536
aI6609
aI10641
aI10593
aI10616
aI10568
aI6081
aI6273
aI10881
aI10856
aI6824
aI6657
aI10664
aI10689
aI6248
aI6056
aI6849
aI6632
aI6032
aI5984
aI5961
aI6009
aI6560
aI6585
aI6537
aI6608
aI10640
aI10592
aI10617
aI10569
aI6080
aI6272
aI10880
aI10857
aI6825
aI6656
aI10665
aI10688
aI6249
aI6057
aI6848
aI6633
aI5986
aI6034
aI6011
aI5963
aI6610
aI6539
aI6587
aI6562
aI10594
aI10642
aI10571
aI10619
aI6274
aI6082
aI10690
aI10667
aI6635
aI6850
aI10859
aI10882
aI6059
aI6251
aI6658
aI6827
aI7761
aI7713
aI7688
aI7736
aI8289
aI8312
aI8264
aI8337
aI7185
aI7137
aI7160
aI7112
aI7809
aI8001
aI7425
aI7400
aI8552
aI8385
aI7208
aI7233
aI7976
aI7784
aI8577
aI8360
aI7714
aI7762
aI7739
aI7691
aI8338
aI8267
aI8315
aI8290
aI7138
aI7186
aI7115
aI7163
aI8002
aI7810
aI7234
aI7211
aI8363
aI8578
aI7403
aI7426
aI7787
aI7979
aI8386
aI8555
aI7760
aI7712
aI7689
aI7737
aI8288
aI8313
aI8265
aI8336
aI7184
aI7136
aI7161
aI7113
aI7808
aI8000
aI7424
aI7401
aI8553
aI8384
aI7209
aI7232
aI7977
aI7785
aI8576
aI8361
aI7715
aI7763
aI7738
aI7690
aI8339
aI8266
aI8314
aI8291
aI7139
aI7187
aI7114
aI7162
aI8003
aI7811
aI7235
aI7210
aI8362
aI8579
aI7402
aI7427
aI7786
aI7978
aI8387
aI8554
aI9443
aI9491
aI9466
aI9418
aI10067
aI9994
aI10042
aI10019
aI8867
aI8915
aI8842
aI8890
aI9731
aI9539
aI8963
aI8938
aI10090
aI10307
aI9130
aI9155
aI9514
aI9706
aI10115
aI10282
aI9489
aI9441
aI9416
aI9464
aI10017
aI10040
aI9992
aI10065
aI8913
aI8865
aI8888
aI8840
aI9537
aI9729
aI9153
aI9128
aI10280
aI10113
aI8936
aI8961
aI9704
aI9512
aI10305
aI10088
aI9442
aI9490
aI9467
aI9419
aI10066
aI9995
aI10043
aI10018
aI8866
aI8914
aI8843
aI8891
aI9730
aI9538
aI8962
aI8939
aI10091
aI10306
aI9131
aI9154
aI9515
aI9707
aI10114
aI10283
aI9488
aI9440
aI9417
aI9465
aI10016
aI10041
aI9993
aI10064
aI8912
aI8864
aI8889
aI8841
aI9536
aI9728
aI9152
aI9129
aI10281
aI10112
aI8937
aI8960
aI9705
aI9513
aI10304
aI10089
aI9450
aI9498
aI9471
aI9423
aI10074
aI9999
aI10047
aI10026
aI8874
aI8922
aI8847
aI8895
aI9738
aI9546
aI8970
aI8943
aI10095
aI10314
aI9135
aI9162
aI9519
aI9711
aI10122
aI10287
aI9499
aI9451
aI9422
aI9470
aI10027
aI10046
aI9998
aI10075
aI8923
aI8875
aI8894
aI8846
aI9547
aI9739
aI9163
aI9134
aI10286
aI10123
aI8942
aI8971
aI9710
aI9518
aI10315
aI10094
aI7771
aI7723
aI7694
aI7742
aI8299
aI8318
aI8270
aI8347
aI7195
aI7147
aI7166
aI7118
aI7819
aI8011
aI7435
aI7406
aI8558
aI8395
aI7214
aI7243
aI7982
aI7790
aI8587
aI8366
aI7719
aI7767
aI7746
aI7698
aI8343
aI8274
aI8322
aI8295
aI7143
aI7191
aI7122
aI7170
aI8007
aI7815
aI7239
aI7218
aI8370
aI8583
aI7410
aI7431
aI7794
aI7986
aI8391
aI8562
aI5991
aI6039
aI6018
aI5970
aI6615
aI6546
aI6594
aI6567
aI10599
aI10647
aI10578
aI10626
aI6279
aI6087
aI10695
aI10674
aI6642
aI6855
aI10866
aI10887
aI6066
aI6258
aI6663
aI6834
aI5994
aI6042
aI6015
aI5967
aI6618
aI6543
aI6591
aI6570
aI10602
aI10650
aI10575
aI10623
aI6282
aI6090
aI10698
aI10671
aI6639
aI6858
aI10863
aI10890
aI6063
aI6255
aI6666
aI6831
aI7766
aI7718
aI7699
aI7747
aI8294
aI8323
aI8275
aI8342
aI7190
aI7142
aI7171
aI7123
aI7814
aI8006
aI7430
aI7411
aI8563
aI8390
aI7219
aI7238
aI7987
aI7795
aI8582
aI8371
aI7722
aI7770
aI7743
aI7695
aI8346
aI8271
aI8319
aI8298
aI7146
aI7194
aI7119
aI7167
aI8010
aI7818
aI7242
aI7215
aI8367
aI8586
aI7407
aI7434
aI7791
aI7983
aI8394
aI8559
aI9447
aI9495
aI9474
aI9426
aI10071
aI10002
aI10050
aI10023
aI8871
aI8919
aI8850
aI8898
aI9735
aI9543
aI8967
aI8946
aI10098
aI10311
aI9138
aI9159
aI9522
aI9714
aI10119
aI10290
aI9494
aI9446
aI9427
aI9475
aI10022
aI10051
aI10003
aI10070
aI8918
aI8870
aI8899
aI8851
aI9542
aI9734
aI9158
aI9139
aI10291
aI10118
aI8947
aI8966
aI9715
aI9523
aI10310
aI10099
aI6043
aI5995
aI5966
aI6014
aI6571
aI6590
aI6542
aI6619
aI10651
aI10603
aI10622
aI10574
aI6091
aI6283
aI10891
aI10862
aI6830
aI6667
aI10670
aI10699
aI6254
aI6062
aI6859
aI6638
aI6038
aI5990
aI5971
aI6019
aI6566
aI6595
aI6547
aI6614
aI10646
aI10598
aI10627
aI10579
aI6086
aI6278
aI10886
aI10867
aI6835
aI6662
aI10675
aI10694
aI6259
aI6067
aI6854
aI6643
aI5978
aI6026
aI6003
aI5955
aI6602
aI6531
aI6579
aI6554
aI10586
aI10634
aI10563
aI10611
aI6266
aI6074
aI10682
aI10659
aI6627
aI6842
aI10851
aI10874
aI6051
aI6243
aI6650
aI6819
aI6025
aI5977
aI5952
aI6000
aI6553
aI6576
aI6528
aI6601
aI10633
aI10585
aI10608
aI10560
aI6073
aI6265
aI10873
aI10848
aI6816
aI6649
aI10656
aI10681
aI6240
aI6048
aI6841
aI6624
aI6024
aI5976
aI5953
aI6001
aI6552
aI6577
aI6529
aI6600
aI10632
aI10584
aI10609
aI10561
aI6072
aI6264
aI10872
aI10849
aI6817
aI6648
aI10657
aI10680
aI6241
aI6049
aI6840
aI6625
aI5979
aI6027
aI6002
aI5954
aI6603
aI6530
aI6578
aI6555
aI10587
aI10635
aI10562
aI10610
aI6267
aI6075
aI10683
aI10658
aI6626
aI6843
aI10850
aI10875
aI6050
aI6242
aI6651
aI6818
aI7753
aI7705
aI7680
aI7728
aI8281
aI8304
aI8256
aI8329
aI7177
aI7129
aI7152
aI7104
aI7801
aI7993
aI7417
aI7392
aI8544
aI8377
aI7200
aI7225
aI7968
aI7776
aI8569
aI8352
aI7707
aI7755
aI7730
aI7682
aI8331
aI8258
aI8306
aI8283
aI7131
aI7179
aI7106
aI7154
aI7995
aI7803
aI7227
aI7202
aI8354
aI8571
aI7394
aI7419
aI7778
aI7970
aI8379
aI8546
aI7752
aI7704
aI7681
aI7729
aI8280
aI8305
aI8257
aI8328
aI7176
aI7128
aI7153
aI7105
aI7800
aI7992
aI7416
aI7393
aI8545
aI8376
aI7201
aI7224
aI7969
aI7777
aI8568
aI8353
aI7706
aI7754
aI7731
aI7683
aI8330
aI8259
aI8307
aI8282
aI7130
aI7178
aI7107
aI7155
aI7994
aI7802
aI7226
aI7203
aI8355
aI8570
aI7395
aI7418
aI7779
aI7971
aI8378
aI8547
aI9434
aI9482
aI9459
aI9411
aI10058
aI9987
aI10035
aI10010
aI8858
aI8906
aI8835
aI8883
aI9722
aI9530
aI8954
aI8931
aI10083
aI10298
aI9123
aI9146
aI9507
aI9699
aI10106
aI10275
aI9481
aI9433
aI9408
aI9456
aI10009
aI10032
aI9984
aI10057
aI8905
aI8857
aI8880
aI8832
aI9529
aI9721
aI9145
aI9120
aI10272
aI10105
aI8928
aI8953
aI9696
aI9504
aI10297
aI10080
aI9435
aI9483
aI9458
aI9410
aI10059
aI9986
aI10034
aI10011
aI8859
aI8907
aI8834
aI8882
aI9723
aI9531
aI8955
aI8930
aI10082
aI10299
aI9122
aI9147
aI9506
aI9698
aI10107
aI10274
aI9480
aI9432
aI9409
aI9457
aI10008
aI10033
aI9985
aI10056
aI8904
aI8856
aI8881
aI8833
aI9528
aI9720
aI9144
aI9121
aI10273
aI10104
aI8929
aI8952
aI9697
aI9505
aI10296
aI10081
aI9453
aI9501
aI9476
aI9428
aI10077
aI10004
aI10052
aI10029
aI8877
aI8925
aI8852
aI8900
aI9741
aI9549
aI8973
aI8948
aI10100
aI10317
aI9140
aI9165
aI9524
aI9716
aI10125
aI10292
aI9492
aI9444
aI9421
aI9469
aI10020
aI10045
aI9997
aI10068
aI8916
aI8868
aI8893
aI8845
aI9540
aI9732
aI9156
aI9133
aI10285
aI10116
aI8941
aI8964
aI9709
aI9517
aI10308
aI10093
aI7764
aI7716
aI7693
aI7741
aI8292
aI8317
aI8269
aI8340
aI7188
aI7140
aI7165
aI7117
aI7812
aI8004
aI7428
aI7405
aI8557
aI8388
aI7213
aI7236
aI7981
aI7789
aI8580
aI8365
aI7724
aI7772
aI7749
aI7701
aI8348
aI8277
aI8325
aI8300
aI7148
aI7196
aI7125
aI7173
aI8012
aI7820
aI7244
aI7221
aI8373
aI8588
aI7413
aI7436
aI7797
aI7989
aI8396
aI8565
aI5996
aI6044
aI6021
aI5973
aI6620
aI6549
aI6597
aI6572
aI10604
aI10652
aI10581
aI10629
aI6284
aI6092
aI10700
aI10677
aI6645
aI6860
aI10869
aI10892
aI6069
aI6261
aI6668
aI6837
aI5997
aI6045
aI6020
aI5972
aI6621
aI6548
aI6596
aI6573
aI10605
aI10653
aI10580
aI10628
aI6285
aI6093
aI10701
aI10676
aI6644
aI6861
aI10868
aI10893
aI6068
aI6260
aI6669
aI6836
aI7765
aI7717
aI7692
aI7740
aI8293
aI8316
aI8268
aI8341
aI7189
aI7141
aI7164
aI7116
aI7813
aI8005
aI7429
aI7404
aI8556
aI8389
aI7212
aI7237
aI7980
aI7788
aI8581
aI8364
aI7725
aI7773
aI7748
aI7700
aI8349
aI8276
aI8324
aI8301
aI7149
aI7197
aI7124
aI7172
aI8013
aI7821
aI7245
aI7220
aI8372
aI8589
aI7412
aI7437
aI7796
aI7988
aI8397
aI8564
aI9452
aI9500
aI9477
aI9429
aI10076
aI10005
aI10053
aI10028
aI8876
aI8924
aI8853
aI8901
aI9740
aI9548
aI8972
aI8949
aI10101
aI10316
aI9141
aI9164
aI9525
aI9717
aI10124
aI10293
aI9493
aI9445
aI9420
aI9468
aI10021
aI10044
aI9996
aI10069
aI8917
aI8869
aI8892
aI8844
aI9541
aI9733
aI9157
aI9132
aI10284
aI10117
aI8940
aI8965
aI9708
aI9516
aI10309
aI10092
aI6036
aI5988
aI5965
aI6013
aI6564
aI6589
aI6541
aI6612
aI10644
aI10596
aI10621
aI10573
aI6084
aI6276
aI10884
aI10861
aI6829
aI6660
aI10669
aI10692
aI6253
aI6061
aI6852
aI6637
aI6037
aI5989
aI5964
aI6012
aI6565
aI6588
aI6540
aI6613
aI10645
aI10597
aI10620
aI10572
aI6085
aI6277
aI10885
aI10860
aI6828
aI6661
aI10668
aI10693
aI6252
aI6060
aI6853
aI6636
aI5982
aI6030
aI6005
aI5957
aI6606
aI6533
aI6581
aI6558
aI10590
aI10638
aI10565
aI10613
aI6270
aI6078
aI10686
aI10661
aI6629
aI6846
aI10853
aI10878
aI6053
aI6245
aI6654
aI6821
aI6028
aI5980
aI5959
aI6007
aI6556
aI6583
aI6535
aI6604
aI10636
aI10588
aI10615
aI10567
aI6076
aI6268
aI10876
aI10855
aI6823
aI6652
aI10663
aI10684
aI6247
aI6055
aI6844
aI6631
aI6031
aI5983
aI5956
aI6004
aI6559
aI6580
aI6532
aI6607
aI10639
aI10591
aI10612
aI10564
aI6079
aI6271
aI10879
aI10852
aI6820
aI6655
aI10660
aI10687
aI6244
aI6052
aI6847
aI6628
aI5981
aI6029
aI6006
aI5958
aI6605
aI6534
aI6582
aI6557
aI10589
aI10637
aI10566
aI10614
aI6269
aI6077
aI10685
aI10662
aI6630
aI6845
aI10854
aI10877
aI6054
aI6246
aI6653
aI6822
aI7756
aI7708
aI7687
aI7735
aI8284
aI8311
aI8263
aI8332
aI7180
aI7132
aI7159
aI7111
aI7804
aI7996
aI7420
aI7399
aI8551
aI8380
aI7207
aI7228
aI7975
aI7783
aI8572
aI8359
aI7709
aI7757
aI7734
aI7686
aI8333
aI8262
aI8310
aI8285
aI7133
aI7181
aI7110
aI7158
aI7997
aI7805
aI7229
aI7206
aI8358
aI8573
aI7398
aI7421
aI7782
aI7974
aI8381
aI8550
aI7759
aI7711
aI7684
aI7732
aI8287
aI8308
aI8260
aI8335
aI7183
aI7135
aI7156
aI7108
aI7807
aI7999
aI7423
aI7396
aI8548
aI8383
aI7204
aI7231
aI7972
aI7780
aI8575
aI8356
aI7710
aI7758
aI7733
aI7685
aI8334
aI8261
aI8309
aI8286
aI7134
aI7182
aI7109
aI7157
aI7998
aI7806
aI7230
aI7205
aI8357
aI8574
aI7397
aI7422
aI7781
aI7973
aI8382
aI8549
aI9438
aI9486
aI9461
aI9413
aI10062
aI9989
aI10037
aI10014
aI8862
aI8910
aI8837
aI8885
aI9726
aI9534
aI8958
aI8933
aI10085
aI10302
aI9125
aI9150
aI9509
aI9701
aI10110
aI10277
aI9484
aI9436
aI9415
aI9463
aI10012
aI10039
aI9991
aI10060
aI8908
aI8860
aI8887
aI8839
aI9532
aI9724
aI9148
aI9127
aI10279
aI10108
aI8935
aI8956
aI9703
aI9511
aI10300
aI10087
aI9437
aI9485
aI9462
aI9414
aI10061
aI9990
aI10038
aI10013
aI8861
aI8909
aI8838
aI8886
aI9725
aI9533
aI8957
aI8934
aI10086
aI10301
aI9126
aI9149
aI9510
aI9702
aI10109
aI10278
aI9487
aI9439
aI9412
aI9460
aI10015
aI10036
aI9988
aI10063
aI8911
aI8863
aI8884
aI8836
aI9535
aI9727
aI9151
aI9124
aI10276
aI10111
aI8932
aI8959
aI9700
aI9508
aI10303
aI10084
aI9455
aI9503
aI9472
aI9424
aI10079
aI10000
aI10048
aI10031
aI8879
aI8927
aI8848
aI8896
aI9743
aI9551
aI8975
aI8944
aI10096
aI10319
aI9136
aI9167
aI9520
aI9712
aI10127
aI10288
aI9497
aI9449
aI9430
aI9478
aI10025
aI10054
aI10006
aI10073
aI8921
aI8873
aI8902
aI8854
aI9545
aI9737
aI9161
aI9142
aI10294
aI10121
aI8950
aI8969
aI9718
aI9526
aI10313
aI10102
aI7769
aI7721
aI7702
aI7750
aI8297
aI8326
aI8278
aI8345
aI7193
aI7145
aI7174
aI7126
aI7817
aI8009
aI7433
aI7414
aI8566
aI8393
aI7222
aI7241
aI7990
aI7798
aI8585
aI8374
aI7720
aI7768
aI7751
aI7703
aI8344
aI8279
aI8327
aI8296
aI7144
aI7192
aI7127
aI7175
aI8008
aI7816
aI7240
aI7223
aI8375
aI8584
aI7415
aI7432
aI7799
aI7991
aI8392
aI8567
aI5992
aI6040
aI6023
aI5975
aI6616
aI6551
aI6599
aI6568
aI10600
aI10648
aI10583
aI10631
aI6280
aI6088
aI10696
aI10679
aI6647
aI6856
aI10871
aI10888
aI6071
aI6263
aI6664
aI6839
aI5999
aI6047
aI6016
aI5968
aI6623
aI6544
aI6592
aI6575
aI10607
aI10655
aI10576
aI10624
aI6287
aI6095
aI10703
aI10672
aI6640
aI6863
aI10864
aI10895
aI6064
aI6256
aI6671
aI6832
aI7774
aI7726
aI7697
aI7745
aI8302
aI8321
aI8273
aI8350
aI7198
aI7150
aI7169
aI7121
aI7822
aI8014
aI7438
aI7409
aI8561
aI8398
aI7217
aI7246
aI7985
aI7793
aI8590
aI8369
aI7727
aI7775
aI7744
aI7696
aI8351
aI8272
aI8320
aI8303
aI7151
aI7199
aI7120
aI7168
aI8015
aI7823
aI7247
aI7216
aI8368
aI8591
aI7408
aI7439
aI7792
aI7984
aI8399
aI8560
aI9448
aI9496
aI9479
aI9431
aI10072
aI10007
aI10055
aI10024
aI8872
aI8920
aI8855
aI8903
aI9736
aI9544
aI8968
aI8951
aI10103
aI10312
aI9143
aI9160
aI9527
aI9719
aI10120
aI10295
aI9502
aI9454
aI9425
aI9473
aI10030
aI10049
aI10001
aI10078
aI8926
aI8878
aI8897
aI8849
aI9550
aI9742
aI9166
aI9137
aI10289
aI10126
aI8945
aI8974
aI9713
aI9521
aI10318
aI10097
aI6041
aI5993
aI5974
aI6022
aI6569
aI6598
aI6550
aI6617
aI10649
aI10601
aI10630
aI10582
aI6089
aI6281
aI10889
aI10870
aI6838
aI6665
aI10678
aI10697
aI6262
aI6070
aI6857
aI6646
aI6046
aI5998
aI5969
aI6017
aI6574
aI6593
aI6545
aI6622
aI10654
aI10606
aI10625
aI10577
aI6094
aI6286
aI10894
aI10865
aI6833
aI6670
aI10673
aI10702
aI6257
aI6065
aI6862
aI6641
aI5795
aI5819
aI5842
aI5770
aI6395
aI6346
aI6418
aI6371
aI10403
aI10427
aI10378
aI10450
aI6323
aI6299
aI10907
aI10786
aI6754
aI6899
aI10762
aI10931
aI6178
aI6154
aI6875
aI6730
aI5817
aI5793
aI5768
aI5840
aI6369
aI6416
aI6344
aI6393
aI10425
aI10401
aI10448
aI10376
aI6297
aI6321
aI10929
aI10760
aI6728
aI6873
aI10784
aI10905
aI6152
aI6176
aI6897
aI6752
aI5816
aI5792
aI5769
aI5841
aI6368
aI6417
aI6345
aI6392
aI10424
aI10400
aI10449
aI10377
aI6296
aI6320
aI10928
aI10761
aI6729
aI6872
aI10785
aI10904
aI6153
aI6177
aI6896
aI6753
aI5794
aI5818
aI5843
aI5771
aI6394
aI6347
aI6419
aI6370
aI10402
aI10426
aI10379
aI10451
aI6322
aI6298
aI10906
aI10787
aI6755
aI6898
aI10763
aI10930
aI6179
aI6155
aI6874
aI6731
aI7545
aI7521
aI7496
aI7568
aI8097
aI8144
aI8072
aI8121
aI6969
aI6945
aI6992
aI6920
aI8025
aI8049
aI7473
aI7304
aI8456
aI8601
aI7328
aI7449
aI7880
aI7904
aI8625
aI8480
aI7522
aI7546
aI7571
aI7499
aI8122
aI8075
aI8147
aI8098
aI6946
aI6970
aI6923
aI6995
aI8050
aI8026
aI7450
aI7331
aI8483
aI8626
aI7307
aI7474
aI7907
aI7883
aI8602
aI8459
aI7544
aI7520
aI7497
aI7569
aI8096
aI8145
aI8073
aI8120
aI6968
aI6944
aI6993
aI6921
aI8024
aI8048
aI7472
aI7305
aI8457
aI8600
aI7329
aI7448
aI7881
aI7905
aI8624
aI8481
aI7523
aI7547
aI7570
aI7498
aI8123
aI8074
aI8146
aI8099
aI6947
aI6971
aI6922
aI6994
aI8051
aI8027
aI7451
aI7330
aI8482
aI8627
aI7306
aI7475
aI7906
aI7882
aI8603
aI8458
aI9251
aI9275
aI9298
aI9226
aI9851
aI9802
aI9874
aI9827
aI8675
aI8699
aI8650
aI8722
aI9779
aI9755
aI9179
aI9058
aI10210
aI10355
aI9034
aI9203
aI9634
aI9610
aI10331
aI10186
aI9273
aI9249
aI9224
aI9296
aI9825
aI9872
aI9800
aI9849
aI8697
aI8673
aI8720
aI8648
aI9753
aI9777
aI9201
aI9032
aI10184
aI10329
aI9056
aI9177
aI9608
aI9632
aI10353
aI10208
aI9250
aI9274
aI9299
aI9227
aI9850
aI9803
aI9875
aI9826
aI8674
aI8698
aI8651
aI8723
aI9778
aI9754
aI9178
aI9059
aI10211
aI10354
aI9035
aI9202
aI9635
aI9611
aI10330
aI10187
aI9272
aI9248
aI9225
aI9297
aI9824
aI9873
aI9801
aI9848
aI8696
aI8672
aI8721
aI8649
aI9752
aI9776
aI9200
aI9033
aI10185
aI10328
aI9057
aI9176
aI9609
aI9633
aI10352
aI10209
aI9258
aI9282
aI9303
aI9231
aI9858
aI9807
aI9879
aI9834
aI8682
aI8706
aI8655
aI8727
aI9786
aI9762
aI9186
aI9063
aI10215
aI10362
aI9039
aI9210
aI9639
aI9615
aI10338
aI10191
aI9283
aI9259
aI9230
aI9302
aI9835
aI9878
aI9806
aI9859
aI8707
aI8683
aI8726
aI8654
aI9763
aI9787
aI9211
aI9038
aI10190
aI10339
aI9062
aI9187
aI9614
aI9638
aI10363
aI10214
aI7555
aI7531
aI7502
aI7574
aI8107
aI8150
aI8078
aI8131
aI6979
aI6955
aI6998
aI6926
aI8035
aI8059
aI7483
aI7310
aI8462
aI8611
aI7334
aI7459
aI7886
aI7910
aI8635
aI8486
aI7527
aI7551
aI7578
aI7506
aI8127
aI8082
aI8154
aI8103
aI6951
aI6975
aI6930
aI7002
aI8055
aI8031
aI7455
aI7338
aI8490
aI8631
aI7314
aI7479
aI7914
aI7890
aI8607
aI8466
aI5799
aI5823
aI5850
aI5778
aI6399
aI6354
aI6426
aI6375
aI10407
aI10431
aI10386
aI10458
aI6327
aI6303
aI10911
aI10794
aI6762
aI6903
aI10770
aI10935
aI6186
aI6162
aI6879
aI6738
aI5802
aI5826
aI5847
aI5775
aI6402
aI6351
aI6423
aI6378
aI10410
aI10434
aI10383
aI10455
aI6330
aI6306
aI10914
aI10791
aI6759
aI6906
aI10767
aI10938
aI6183
aI6159
aI6882
aI6735
aI7550
aI7526
aI7507
aI7579
aI8102
aI8155
aI8083
aI8126
aI6974
aI6950
aI7003
aI6931
aI8030
aI8054
aI7478
aI7315
aI8467
aI8606
aI7339
aI7454
aI7891
aI7915
aI8630
aI8491
aI7530
aI7554
aI7575
aI7503
aI8130
aI8079
aI8151
aI8106
aI6954
aI6978
aI6927
aI6999
aI8058
aI8034
aI7458
aI7335
aI8487
aI8634
aI7311
aI7482
aI7911
aI7887
aI8610
aI8463
aI9255
aI9279
aI9306
aI9234
aI9855
aI9810
aI9882
aI9831
aI8679
aI8703
aI8658
aI8730
aI9783
aI9759
aI9183
aI9066
aI10218
aI10359
aI9042
aI9207
aI9642
aI9618
aI10335
aI10194
aI9278
aI9254
aI9235
aI9307
aI9830
aI9883
aI9811
aI9854
aI8702
aI8678
aI8731
aI8659
aI9758
aI9782
aI9206
aI9043
aI10195
aI10334
aI9067
aI9182
aI9619
aI9643
aI10358
aI10219
aI5827
aI5803
aI5774
aI5846
aI6379
aI6422
aI6350
aI6403
aI10435
aI10411
aI10454
aI10382
aI6307
aI6331
aI10939
aI10766
aI6734
aI6883
aI10790
aI10915
aI6158
aI6182
aI6907
aI6758
aI5822
aI5798
aI5779
aI5851
aI6374
aI6427
aI6355
aI6398
aI10430
aI10406
aI10459
aI10387
aI6302
aI6326
aI10934
aI10771
aI6739
aI6878
aI10795
aI10910
aI6163
aI6187
aI6902
aI6763
aI11344
aI11512
aI11488
aI11368
aI11392
aI11296
aI11320
aI11416
aI11272
aI11464
aI11440
aI11248
aI11104
aI11080
aI11224
aI11152
aI10960
aI11032
aI11200
aI11176
aI11128
aI11056
aI10984
aI11008
aI11350
aI11518
aI11494
aI11374
aI11398
aI11302
aI11326
aI11422
aI11278
aI11470
aI11446
aI11254
aI11110
aI11086
aI11230
aI11158
aI10966
aI11038
aI11206
aI11182
aI11134
aI11062
aI10990
aI11014
aI11351
aI11519
aI11495
aI11375
aI11399
aI11303
aI11327
aI11423
aI11279
aI11471
aI11447
aI11255
aI11111
aI11087
aI11231
aI11159
aI10967
aI11039
aI11207
aI11183
aI11135
aI11063
aI10991
aI11015
aI11345
aI11513
aI11489
aI11369
aI11393
aI11297
aI11321
aI11417
aI11273
aI11465
aI11441
aI11249
aI11105
aI11081
aI11225
aI11153
aI10961
aI11033
aI11201
aI11177
aI11129
aI11057
aI10985
aI11009
aI11349
aI11517
aI11493
aI11373
aI11397
aI11301
aI11325
aI11421
aI11277
aI11469
aI11445
aI11253
aI11109
aI11085
aI11229
aI11157
aI10965
aI11037
aI11205
aI11181
aI11133
aI11061
aI10989
aI11013
aI11341
aI11509
aI11485
aI11365
aI11389
aI11293
aI11317
aI11413
aI11269
aI11461
aI11437
aI11245
aI11101
aI11077
aI11221
aI11149
aI10957
aI11029
aI11197
aI11173
aI11125
aI11053
aI10981
aI11005
aI11340
aI11508
aI11484
aI11364
aI11388
aI11292
aI11316
aI11412
aI11268
aI11460
aI11436
aI11244
aI11100
aI11076
aI11220
aI11148
aI10956
aI11028
aI11196
aI11172
aI11124
aI11052
aI10980
aI11004
aI11348
aI11516
aI11492
aI11372
aI11396
aI11300
aI11324
aI11420
aI11276
aI11468
aI11444
aI11252
aI11108
aI11084
aI11228
aI11156
aI10964
aI11036
aI11204
aI11180
aI11132
aI11060
aI10988
aI11012
aI11343
aI11511
aI11487
aI11367
aI11391
aI11295
aI11319
aI11415
aI11271
aI11463
aI11439
aI11247
aI11103
aI11079
aI11223
aI11151
aI10959
aI11031
aI11199
aI11175
aI11127
aI11055
aI10983
aI11007
aI11347
aI11515
aI11491
aI11371
aI11395
aI11299
aI11323
aI11419
aI11275
aI11467
aI11443
aI11251
aI11107
aI11083
aI11227
aI11155
aI10963
aI11035
aI11203
aI11179
aI11131
aI11059
aI10987
aI11011
aI11346
aI11514
aI11490
aI11370
aI11394
aI11298
aI11322
aI11418
aI11274
aI11466
aI11442
aI11250
aI11106
aI11082
aI11226
aI11154
aI10962
aI11034
aI11202
aI11178
aI11130
aI11058
aI10986
aI11010
aI11342
aI11510
aI11486
aI11366
aI11390
aI11294
aI11318
aI11414
aI11270
aI11462
aI11438
aI11246
aI11102
aI11078
aI11222
aI11150
aI10958
aI11030
aI11198
aI11174
aI11126
aI11054
aI10982
aI11006
aI11339
aI11507
aI11483
aI11363
aI11387
aI11291
aI11315
aI11411
aI11267
aI11459
aI11435
aI11243
aI11099
aI11075
aI11219
aI11147
aI10955
aI11027
aI11195
aI11171
aI11123
aI11051
aI10979
aI11003
aI11336
aI11504
aI11480
aI11360
aI11384
aI11288
aI11312
aI11408
aI11264
aI11456
aI11432
aI11240
aI11096
aI11072
aI11216
aI11144
aI10952
aI11024
aI11192
aI11168
aI11120
aI11048
aI10976
aI11000
aI11333
aI11501
aI11477
aI11357
aI11381
aI11285
aI11309
aI11405
aI11261
aI11453
aI11429
aI11237
aI11093
aI11069
aI11213
aI11141
aI10949
aI11021
aI11189
aI11165
aI11117
aI11045
aI10973
aI10997
aI11334
aI11502
aI11478
aI11358
aI11382
aI11286
aI11310
aI11406
aI11262
aI11454
aI11430
aI11238
aI11094
aI11070
aI11214
aI11142
aI10950
aI11022
aI11190
aI11166
aI11118
aI11046
aI10974
aI10998
aI11328
aI11496
aI11472
aI11352
aI11376
aI11280
aI11304
aI11400
aI11256
aI11448
aI11424
aI11232
aI11088
aI11064
aI11208
aI11136
aI10944
aI11016
aI11184
aI11160
aI11112
aI11040
aI10968
aI10992
aI11331
aI11499
aI11475
aI11355
aI11379
aI11283
aI11307
aI11403
aI11259
aI11451
aI11427
aI11235
aI11091
aI11067
aI11211
aI11139
aI10947
aI11019
aI11187
aI11163
aI11115
aI11043
aI10971
aI10995
aI11332
aI11500
aI11476
aI11356
aI11380
aI11284
aI11308
aI11404
aI11260
aI11452
aI11428
aI11236
aI11092
aI11068
aI11212
aI11140
aI10948
aI11020
aI11188
aI11164
aI11116
aI11044
aI10972
aI10996
aI11335
aI11503
aI11479
aI11359
aI11383
aI11287
aI11311
aI11407
aI11263
aI11455
aI11431
aI11239
aI11095
aI11071
aI11215
aI11143
aI10951
aI11023
aI11191
aI11167
aI11119
aI11047
aI10975
aI10999
aI11338
aI11506
aI11482
aI11362
aI11386
aI11290
aI11314
aI11410
aI11266
aI11458
aI11434
aI11242
aI11098
aI11074
aI11218
aI11146
aI10954
aI11026
aI11194
aI11170
aI11122
aI11050
aI10978
aI11002
aI11337
aI11505
aI11481
aI11361
aI11385
aI11289
aI11313
aI11409
aI11265
aI11457
aI11433
aI11241
aI11097
aI11073
aI11217
aI11145
aI10953
aI11025
aI11193
aI11169
aI11121
aI11049
aI10977
aI11001
aI11330
aI11498
aI11474
aI11354
aI11378
aI11282
aI11306
aI11402
aI11258
aI11450
aI11426
aI11234
aI11090
aI11066
aI11210
aI11138
aI10946
aI11018
aI11186
aI11162
aI11114
aI11042
aI10970
aI10994
aI11329
aI11497
aI11473
aI11353
aI11377
aI11281
aI11305
aI11401
aI11257
aI11449
aI11425
aI11233
aI11089
aI11065
aI11209
aI11137
aI10945
aI11017
aI11185
aI11161
aI11113
aI11041
aI10969
aI10993
a.